
GccCppProject1.elf:     file format elf32-avr

Sections:
Idx Name          Size      VMA       LMA       File off  Algn
  0 .text         000013f6  00000000  00000000  00000094  2**1
                  CONTENTS, ALLOC, LOAD, READONLY, CODE
  1 .data         00000094  00800060  000013f6  0000148a  2**0
                  CONTENTS, ALLOC, LOAD, DATA
  2 .bss          000000ed  008000f4  008000f4  0000151e  2**0
                  ALLOC
  3 .comment      00000030  00000000  00000000  0000151e  2**0
                  CONTENTS, READONLY
  4 .note.gnu.avr.deviceinfo 0000003c  00000000  00000000  00001550  2**2
                  CONTENTS, READONLY
  5 .debug_aranges 00000408  00000000  00000000  0000158c  2**0
                  CONTENTS, READONLY, DEBUGGING
  6 .debug_info   000082c7  00000000  00000000  00001994  2**0
                  CONTENTS, READONLY, DEBUGGING
  7 .debug_abbrev 00001919  00000000  00000000  00009c5b  2**0
                  CONTENTS, READONLY, DEBUGGING
  8 .debug_line   0000162e  00000000  00000000  0000b574  2**0
                  CONTENTS, READONLY, DEBUGGING
  9 .debug_frame  00000c78  00000000  00000000  0000cba4  2**2
                  CONTENTS, READONLY, DEBUGGING
 10 .debug_str    00001ebe  00000000  00000000  0000d81c  2**0
                  CONTENTS, READONLY, DEBUGGING
 11 .debug_loc    000043ea  00000000  00000000  0000f6da  2**0
                  CONTENTS, READONLY, DEBUGGING
 12 .debug_ranges 000003b8  00000000  00000000  00013ac4  2**0
                  CONTENTS, READONLY, DEBUGGING

Disassembly of section .text:

00000000 <__vectors>:
       0:	42 c0       	rjmp	.+132    	; 0x86 <__ctors_end>
       2:	ed c6       	rjmp	.+3546   	; 0xdde <__vector_1>
       4:	19 c7       	rjmp	.+3634   	; 0xe38 <__vector_2>
       6:	56 c6       	rjmp	.+3244   	; 0xcb4 <__vector_3>
       8:	63 c0       	rjmp	.+198    	; 0xd0 <__bad_interrupt>
       a:	62 c0       	rjmp	.+196    	; 0xd0 <__bad_interrupt>
       c:	a9 c2       	rjmp	.+1362   	; 0x560 <__vector_6>
       e:	60 c0       	rjmp	.+192    	; 0xd0 <__bad_interrupt>
      10:	5f c0       	rjmp	.+190    	; 0xd0 <__bad_interrupt>
      12:	3f c7       	rjmp	.+3710   	; 0xe92 <__vector_9>
      14:	5d c0       	rjmp	.+186    	; 0xd0 <__bad_interrupt>
      16:	80 c4       	rjmp	.+2304   	; 0x918 <__vector_11>
      18:	b7 c4       	rjmp	.+2414   	; 0x988 <__vector_12>
      1a:	5a c0       	rjmp	.+180    	; 0xd0 <__bad_interrupt>
      1c:	59 c0       	rjmp	.+178    	; 0xd0 <__bad_interrupt>
      1e:	58 c0       	rjmp	.+176    	; 0xd0 <__bad_interrupt>
      20:	57 c0       	rjmp	.+174    	; 0xd0 <__bad_interrupt>
      22:	56 c0       	rjmp	.+172    	; 0xd0 <__bad_interrupt>
      24:	55 c0       	rjmp	.+170    	; 0xd0 <__bad_interrupt>

00000026 <__trampolines_end>:
      26:	02 00       	.word	0x0002	; ????

00000027 <digital_pin_to_timer_PGM>:
	...
      2f:	00 03 04 06 00 00 00 00 00 00 00 00                 ............

0000003b <digital_pin_to_bit_mask_PGM>:
      3b:	01 02 04 08 10 20 40 80 01 02 04 08 10 20 01 02     ..... @...... ..
      4b:	04 08 10 20                                         ... 

0000004f <digital_pin_to_port_PGM>:
      4f:	04 04 04 04 04 04 04 04 02 02 02 02 02 02 03 03     ................
      5f:	03 03 03 03                                         ....

00000063 <port_to_input_PGM>:
      63:	00 00 00 00 36 00 33 00 30 00                       ....6.3.0.

0000006d <port_to_output_PGM>:
      6d:	00 00 00 00 38 00 35 00 32 00                       ....8.5.2.

00000077 <port_to_mode_PGM>:
      77:	00 00 00 00 37 00 34 00 31 00 00                    ....7.4.1..

00000082 <__ctors_start>:
      82:	f2 04       	cpc	r15, r2
      84:	5c 05       	cpc	r21, r12

00000086 <__ctors_end>:
      86:	11 24       	eor	r1, r1
      88:	1f be       	out	0x3f, r1	; 63
      8a:	cf e5       	ldi	r28, 0x5F	; 95
      8c:	d4 e0       	ldi	r29, 0x04	; 4
      8e:	de bf       	out	0x3e, r29	; 62
      90:	cd bf       	out	0x3d, r28	; 61

00000092 <__do_copy_data>:
      92:	10 e0       	ldi	r17, 0x00	; 0
      94:	a0 e6       	ldi	r26, 0x60	; 96
      96:	b0 e0       	ldi	r27, 0x00	; 0
      98:	e6 ef       	ldi	r30, 0xF6	; 246
      9a:	f3 e1       	ldi	r31, 0x13	; 19
      9c:	02 c0       	rjmp	.+4      	; 0xa2 <__do_copy_data+0x10>
      9e:	05 90       	lpm	r0, Z+
      a0:	0d 92       	st	X+, r0
      a2:	a4 3f       	cpi	r26, 0xF4	; 244
      a4:	b1 07       	cpc	r27, r17
      a6:	d9 f7       	brne	.-10     	; 0x9e <__do_copy_data+0xc>

000000a8 <__do_clear_bss>:
      a8:	21 e0       	ldi	r18, 0x01	; 1
      aa:	a4 ef       	ldi	r26, 0xF4	; 244
      ac:	b0 e0       	ldi	r27, 0x00	; 0
      ae:	01 c0       	rjmp	.+2      	; 0xb2 <.do_clear_bss_start>

000000b0 <.do_clear_bss_loop>:
      b0:	1d 92       	st	X+, r1

000000b2 <.do_clear_bss_start>:
      b2:	a1 3e       	cpi	r26, 0xE1	; 225
      b4:	b2 07       	cpc	r27, r18
      b6:	e1 f7       	brne	.-8      	; 0xb0 <.do_clear_bss_loop>

000000b8 <__do_global_ctors>:
      b8:	10 e0       	ldi	r17, 0x00	; 0
      ba:	c3 e4       	ldi	r28, 0x43	; 67
      bc:	d0 e0       	ldi	r29, 0x00	; 0
      be:	03 c0       	rjmp	.+6      	; 0xc6 <__do_global_ctors+0xe>
      c0:	21 97       	sbiw	r28, 0x01	; 1
      c2:	fe 01       	movw	r30, r28
      c4:	90 d9       	rcall	.-3296   	; 0xfffff3e6 <__eeprom_end+0xff7ef3e6>
      c6:	c1 34       	cpi	r28, 0x41	; 65
      c8:	d1 07       	cpc	r29, r17
      ca:	d1 f7       	brne	.-12     	; 0xc0 <__do_global_ctors+0x8>
      cc:	01 d5       	rcall	.+2562   	; 0xad0 <main>
      ce:	91 c9       	rjmp	.-3294   	; 0xfffff3f2 <__eeprom_end+0xff7ef3f2>

000000d0 <__bad_interrupt>:
      d0:	97 cf       	rjmp	.-210    	; 0x0 <__vectors>

000000d2 <vw_symbol_6to4>:
{
    uint8_t i;
    
    // Linear search :-( Could have a 64 byte reverse lookup table?
    for (i = 0; i < 16; i++)
	if (symbol == symbols[i]) return i;
      d2:	8d 30       	cpi	r24, 0x0D	; 13
      d4:	39 f0       	breq	.+14     	; 0xe4 <vw_symbol_6to4+0x12>
      d6:	e7 eb       	ldi	r30, 0xB7	; 183
      d8:	f0 e0       	ldi	r31, 0x00	; 0
uint8_t vw_symbol_6to4(uint8_t symbol)
{
    uint8_t i;
    
    // Linear search :-( Could have a 64 byte reverse lookup table?
    for (i = 0; i < 16; i++)
      da:	91 e0       	ldi	r25, 0x01	; 1
	if (symbol == symbols[i]) return i;
      dc:	21 91       	ld	r18, Z+
      de:	28 13       	cpse	r18, r24
      e0:	04 c0       	rjmp	.+8      	; 0xea <vw_symbol_6to4+0x18>
      e2:	01 c0       	rjmp	.+2      	; 0xe6 <vw_symbol_6to4+0x14>
uint8_t vw_symbol_6to4(uint8_t symbol)
{
    uint8_t i;
    
    // Linear search :-( Could have a 64 byte reverse lookup table?
    for (i = 0; i < 16; i++)
      e4:	90 e0       	ldi	r25, 0x00	; 0
	if (symbol == symbols[i]) return i;
      e6:	89 2f       	mov	r24, r25
      e8:	08 95       	ret
uint8_t vw_symbol_6to4(uint8_t symbol)
{
    uint8_t i;
    
    // Linear search :-( Could have a 64 byte reverse lookup table?
    for (i = 0; i < 16; i++)
      ea:	9f 5f       	subi	r25, 0xFF	; 255
      ec:	90 31       	cpi	r25, 0x10	; 16
      ee:	b1 f7       	brne	.-20     	; 0xdc <vw_symbol_6to4+0xa>
	if (symbol == symbols[i]) return i;
    return 0; // Not found
      f0:	80 e0       	ldi	r24, 0x00	; 0
}
      f2:	08 95       	ret

000000f4 <vw_set_tx_pin>:

// Set the output pin number for transmitter data
void vw_set_tx_pin(uint8_t pin)
{
    vw_tx_pin = pin;
      f4:	80 93 60 00 	sts	0x0060, r24
      f8:	08 95       	ret

000000fa <vw_pll>:
// Called 8 times per bit period
// Phase locked loop tries to synchronise with the transmitter so that bit 
// transitions occur at about the time vw_rx_pll_ramp is 0;
// Then the average is computed over each bit period to deduce the bit value
void vw_pll()
{
      fa:	0f 93       	push	r16
      fc:	1f 93       	push	r17
      fe:	cf 93       	push	r28
    // Integrate each sample
    if (vw_rx_sample)
     100:	80 91 1f 01 	lds	r24, 0x011F
     104:	88 23       	and	r24, r24
     106:	29 f0       	breq	.+10     	; 0x112 <vw_pll+0x18>
	vw_rx_integrator++;
     108:	90 91 1c 01 	lds	r25, 0x011C
     10c:	9f 5f       	subi	r25, 0xFF	; 255
     10e:	90 93 1c 01 	sts	0x011C, r25

    if (vw_rx_sample != vw_rx_last_sample)
     112:	90 91 1e 01 	lds	r25, 0x011E
     116:	89 17       	cp	r24, r25
     118:	69 f0       	breq	.+26     	; 0x134 <vw_pll+0x3a>
    {
	// Transition, advance if ramp > 80, retard if < 80
	vw_rx_pll_ramp += ((vw_rx_pll_ramp < VW_RAMP_TRANSITION) 
     11a:	90 91 1d 01 	lds	r25, 0x011D
			   ? VW_RAMP_INC_RETARD 
			   : VW_RAMP_INC_ADVANCE);
     11e:	90 35       	cpi	r25, 0x50	; 80
     120:	10 f0       	brcs	.+4      	; 0x126 <vw_pll+0x2c>
     122:	2d e1       	ldi	r18, 0x1D	; 29
     124:	01 c0       	rjmp	.+2      	; 0x128 <vw_pll+0x2e>
     126:	2b e0       	ldi	r18, 0x0B	; 11
     128:	92 0f       	add	r25, r18
     12a:	90 93 1d 01 	sts	0x011D, r25
	vw_rx_last_sample = vw_rx_sample;
     12e:	80 93 1e 01 	sts	0x011E, r24
     132:	05 c0       	rjmp	.+10     	; 0x13e <vw_pll+0x44>
    }
    else
    {
	// No transition
	// Advance ramp by standard 20 (== 160/8 samples)
	vw_rx_pll_ramp += VW_RAMP_INC;
     134:	80 91 1d 01 	lds	r24, 0x011D
     138:	8c 5e       	subi	r24, 0xEC	; 236
     13a:	80 93 1d 01 	sts	0x011D, r24
    }
    if (vw_rx_pll_ramp >= VW_RX_RAMP_LEN)
     13e:	80 91 1d 01 	lds	r24, 0x011D
     142:	80 3a       	cpi	r24, 0xA0	; 160
     144:	08 f4       	brcc	.+2      	; 0x148 <vw_pll+0x4e>
     146:	7c c0       	rjmp	.+248    	; 0x240 <vw_pll+0x146>
    {
	// Add this to the 12th bit of vw_rx_bits, LSB first
	// The last 12 bits are kept
	vw_rx_bits >>= 1;
     148:	20 91 17 01 	lds	r18, 0x0117
     14c:	30 91 18 01 	lds	r19, 0x0118
     150:	36 95       	lsr	r19
     152:	27 95       	ror	r18
     154:	30 93 18 01 	sts	0x0118, r19
     158:	20 93 17 01 	sts	0x0117, r18

	// Check the integrator to see how many samples in this cycle were high.
	// If < 5 out of 8, then its declared a 0 bit, else a 1;
	if (vw_rx_integrator >= 5)
     15c:	90 91 1c 01 	lds	r25, 0x011C
     160:	95 30       	cpi	r25, 0x05	; 5
     162:	28 f0       	brcs	.+10     	; 0x16e <vw_pll+0x74>
	    vw_rx_bits |= 0x800;
     164:	38 60       	ori	r19, 0x08	; 8
     166:	30 93 18 01 	sts	0x0118, r19
     16a:	20 93 17 01 	sts	0x0117, r18

	vw_rx_pll_ramp -= VW_RX_RAMP_LEN;
     16e:	80 5a       	subi	r24, 0xA0	; 160
     170:	80 93 1d 01 	sts	0x011D, r24
	vw_rx_integrator = 0; // Clear the integral for the next cycle
     174:	10 92 1c 01 	sts	0x011C, r1

	if (vw_rx_active)
     178:	80 91 1b 01 	lds	r24, 0x011B
     17c:	88 23       	and	r24, r24
     17e:	09 f4       	brne	.+2      	; 0x182 <vw_pll+0x88>
     180:	4f c0       	rjmp	.+158    	; 0x220 <vw_pll+0x126>
	{
	    // We have the start symbol and now we are collecting message bits,
	    // 6 per symbol, each which has to be decoded to 4 bits
	    if (++vw_rx_bit_count >= 12)
     182:	80 91 16 01 	lds	r24, 0x0116
     186:	8f 5f       	subi	r24, 0xFF	; 255
     188:	80 93 16 01 	sts	0x0116, r24
     18c:	8c 30       	cpi	r24, 0x0C	; 12
     18e:	08 f4       	brcc	.+2      	; 0x192 <vw_pll+0x98>
     190:	57 c0       	rjmp	.+174    	; 0x240 <vw_pll+0x146>
	    {
		// Have 12 bits of encoded message == 1 byte encoded
		// Decode as 2 lots of 6 bits into 2 lots of 4 bits
		// The 6 lsbits are the high nybble
		uint8_t this_byte = 
		    (vw_symbol_6to4(vw_rx_bits & 0x3f)) << 4 
     192:	00 91 17 01 	lds	r16, 0x0117
     196:	10 91 18 01 	lds	r17, 0x0118
     19a:	80 2f       	mov	r24, r16
     19c:	8f 73       	andi	r24, 0x3F	; 63
     19e:	99 df       	rcall	.-206    	; 0xd2 <vw_symbol_6to4>
     1a0:	c8 2f       	mov	r28, r24
		    | vw_symbol_6to4(vw_rx_bits >> 6);
     1a2:	c8 01       	movw	r24, r16
     1a4:	00 24       	eor	r0, r0
     1a6:	88 0f       	add	r24, r24
     1a8:	99 1f       	adc	r25, r25
     1aa:	00 1c       	adc	r0, r0
     1ac:	88 0f       	add	r24, r24
     1ae:	99 1f       	adc	r25, r25
     1b0:	00 1c       	adc	r0, r0
     1b2:	89 2f       	mov	r24, r25
     1b4:	90 2d       	mov	r25, r0
     1b6:	8d df       	rcall	.-230    	; 0xd2 <vw_symbol_6to4>
	    {
		// Have 12 bits of encoded message == 1 byte encoded
		// Decode as 2 lots of 6 bits into 2 lots of 4 bits
		// The 6 lsbits are the high nybble
		uint8_t this_byte = 
		    (vw_symbol_6to4(vw_rx_bits & 0x3f)) << 4 
     1b8:	90 e1       	ldi	r25, 0x10	; 16
     1ba:	c9 9f       	mul	r28, r25
     1bc:	90 01       	movw	r18, r0
     1be:	11 24       	eor	r1, r1
		    | vw_symbol_6to4(vw_rx_bits >> 6);
     1c0:	82 2b       	or	r24, r18

		// The first decoded byte is the byte count of the following message
		// the count includes the byte count and the 2 trailing FCS bytes
		// REVISIT: may also include the ACK flag at 0x40
		if (vw_rx_len == 0)
     1c2:	90 91 f6 00 	lds	r25, 0x00F6
     1c6:	91 11       	cpse	r25, r1
     1c8:	0e c0       	rjmp	.+28     	; 0x1e6 <vw_pll+0xec>
		{
		    // The first byte is the byte count
		    // Check it for sensibility. It cant be less than 4, since it
		    // includes the bytes count itself and the 2 byte FCS
		    vw_rx_count = this_byte;
     1ca:	80 93 f7 00 	sts	0x00F7, r24
		    if (vw_rx_count < 4 || vw_rx_count > VW_MAX_MESSAGE_LEN)
     1ce:	9c ef       	ldi	r25, 0xFC	; 252
     1d0:	98 0f       	add	r25, r24
     1d2:	9b 31       	cpi	r25, 0x1B	; 27
     1d4:	40 f0       	brcs	.+16     	; 0x1e6 <vw_pll+0xec>
		    {
			// Stupid message length, drop the whole thing
			vw_rx_active = false;
     1d6:	10 92 1b 01 	sts	0x011B, r1
			vw_rx_bad++;
     1da:	80 91 f5 00 	lds	r24, 0x00F5
     1de:	8f 5f       	subi	r24, 0xFF	; 255
     1e0:	80 93 f5 00 	sts	0x00F5, r24
                        return;
     1e4:	2d c0       	rjmp	.+90     	; 0x240 <vw_pll+0x146>
		    }
		}
		vw_rx_buf[vw_rx_len++] = this_byte;
     1e6:	e0 91 f6 00 	lds	r30, 0x00F6
     1ea:	91 e0       	ldi	r25, 0x01	; 1
     1ec:	9e 0f       	add	r25, r30
     1ee:	90 93 f6 00 	sts	0x00F6, r25
     1f2:	f0 e0       	ldi	r31, 0x00	; 0
     1f4:	e8 50       	subi	r30, 0x08	; 8
     1f6:	ff 4f       	sbci	r31, 0xFF	; 255
     1f8:	80 83       	st	Z, r24

		if (vw_rx_len >= vw_rx_count)
     1fa:	90 91 f6 00 	lds	r25, 0x00F6
     1fe:	80 91 f7 00 	lds	r24, 0x00F7
     202:	98 17       	cp	r25, r24
     204:	50 f0       	brcs	.+20     	; 0x21a <vw_pll+0x120>
		{
		    // Got all the bytes now
		    vw_rx_active = false;
     206:	10 92 1b 01 	sts	0x011B, r1
		    vw_rx_good++;
     20a:	80 91 f4 00 	lds	r24, 0x00F4
     20e:	8f 5f       	subi	r24, 0xFF	; 255
     210:	80 93 f4 00 	sts	0x00F4, r24
		    vw_rx_done = true; // Better come get it before the next one starts
     214:	81 e0       	ldi	r24, 0x01	; 1
     216:	80 93 1a 01 	sts	0x011A, r24
		}
		vw_rx_bit_count = 0;
     21a:	10 92 16 01 	sts	0x0116, r1
     21e:	10 c0       	rjmp	.+32     	; 0x240 <vw_pll+0x146>
	    }
	}
	// Not in a message, see if we have a start symbol
	else if (vw_rx_bits == 0xb38)
     220:	80 91 17 01 	lds	r24, 0x0117
     224:	90 91 18 01 	lds	r25, 0x0118
     228:	88 33       	cpi	r24, 0x38	; 56
     22a:	9b 40       	sbci	r25, 0x0B	; 11
     22c:	49 f4       	brne	.+18     	; 0x240 <vw_pll+0x146>
	{
	    // Have start symbol, start collecting message
	    vw_rx_active = true;
     22e:	81 e0       	ldi	r24, 0x01	; 1
     230:	80 93 1b 01 	sts	0x011B, r24
	    vw_rx_bit_count = 0;
     234:	10 92 16 01 	sts	0x0116, r1
	    vw_rx_len = 0;
     238:	10 92 f6 00 	sts	0x00F6, r1
	    vw_rx_done = false; // Too bad if you missed the last message
     23c:	10 92 1a 01 	sts	0x011A, r1
	}
    }
}
     240:	cf 91       	pop	r28
     242:	1f 91       	pop	r17
     244:	0f 91       	pop	r16
     246:	08 95       	ret

00000248 <vw_setup>:
	digitalWrite(vw_ptt_pin, vw_ptt_inverted);
}	

#elif defined (ARDUINO) // Arduino specific
void vw_setup(uint16_t speed)
{
     248:	4f 92       	push	r4
     24a:	5f 92       	push	r5
     24c:	6f 92       	push	r6
     24e:	7f 92       	push	r7
     250:	8f 92       	push	r8
     252:	9f 92       	push	r9
     254:	af 92       	push	r10
     256:	bf 92       	push	r11
     258:	ef 92       	push	r14
     25a:	ff 92       	push	r15
     25c:	1f 93       	push	r17
     25e:	cf 93       	push	r28
     260:	df 93       	push	r29
     262:	cd b7       	in	r28, 0x3d	; 61
     264:	de b7       	in	r29, 0x3e	; 62
     266:	2e 97       	sbiw	r28, 0x0e	; 14
     268:	0f b6       	in	r0, 0x3f	; 63
     26a:	f8 94       	cli
     26c:	de bf       	out	0x3e, r29	; 62
     26e:	0f be       	out	0x3f, r0	; 63
     270:	cd bf       	out	0x3d, r28	; 61
// and sets nticks to compare-match value if lower than max_ticks
// returns 0 & nticks = 0 on fault
static uint8_t _timer_calc(uint16_t speed, uint16_t max_ticks, uint16_t *nticks)
{
    // Clock divider (prescaler) values - 0/3333: error flag
    uint16_t prescalers[] = {0, 1, 8, 64, 256, 1024, 3333};
     272:	2e e0       	ldi	r18, 0x0E	; 14
     274:	e8 ea       	ldi	r30, 0xA8	; 168
     276:	f0 e0       	ldi	r31, 0x00	; 0
     278:	de 01       	movw	r26, r28
     27a:	11 96       	adiw	r26, 0x01	; 1
     27c:	01 90       	ld	r0, Z+
     27e:	0d 92       	st	X+, r0
     280:	2a 95       	dec	r18
     282:	e1 f7       	brne	.-8      	; 0x27c <vw_setup+0x34>
    uint8_t prescaler=0; // index into array & return bit value
    unsigned long ulticks; // calculate by ntick overflow

    // Div-by-zero protection
    if (speed == 0)
     284:	00 97       	sbiw	r24, 0x00	; 0
     286:	09 f4       	brne	.+2      	; 0x28a <vw_setup+0x42>
     288:	70 c0       	rjmp	.+224    	; 0x36a <vw_setup+0x122>
    for (prescaler=1; prescaler < 7; prescaler += 1)
    {
        // Amount of time per CPU clock tick (in seconds)
        float clock_time = (1.0 / (float(F_CPU) / float(prescalers[prescaler])));
        // Fraction of second needed to xmit one bit
        float bit_time = ((1.0 / float(speed)) / 8.0);
     28a:	bc 01       	movw	r22, r24
     28c:	80 e0       	ldi	r24, 0x00	; 0
     28e:	90 e0       	ldi	r25, 0x00	; 0
     290:	97 d7       	rcall	.+3886   	; 0x11c0 <__floatunsisf>
     292:	9b 01       	movw	r18, r22
     294:	ac 01       	movw	r20, r24
     296:	60 e0       	ldi	r22, 0x00	; 0
     298:	70 e0       	ldi	r23, 0x00	; 0
     29a:	80 e8       	ldi	r24, 0x80	; 128
     29c:	9f e3       	ldi	r25, 0x3F	; 63
     29e:	f7 d6       	rcall	.+3566   	; 0x108e <__divsf3>
     2a0:	20 e0       	ldi	r18, 0x00	; 0
     2a2:	30 e0       	ldi	r19, 0x00	; 0
     2a4:	40 e0       	ldi	r20, 0x00	; 0
     2a6:	5e e3       	ldi	r21, 0x3E	; 62
     2a8:	19 d8       	rcall	.-4046   	; 0xfffff2dc <__eeprom_end+0xff7ef2dc>
     2aa:	4b 01       	movw	r8, r22
     2ac:	5c 01       	movw	r10, r24
     2ae:	7e 01       	movw	r14, r28
     2b0:	23 e0       	ldi	r18, 0x03	; 3
     2b2:	e2 0e       	add	r14, r18
     2b4:	f1 1c       	adc	r15, r1
     2b6:	11 e0       	ldi	r17, 0x01	; 1

    // test increasing prescaler (divisor), decreasing ulticks until no overflow
    for (prescaler=1; prescaler < 7; prescaler += 1)
    {
        // Amount of time per CPU clock tick (in seconds)
        float clock_time = (1.0 / (float(F_CPU) / float(prescalers[prescaler])));
     2b8:	f7 01       	movw	r30, r14
     2ba:	81 91       	ld	r24, Z+
     2bc:	91 91       	ld	r25, Z+
     2be:	7f 01       	movw	r14, r30
     2c0:	bc 01       	movw	r22, r24
     2c2:	80 e0       	ldi	r24, 0x00	; 0
     2c4:	90 e0       	ldi	r25, 0x00	; 0
     2c6:	7c d7       	rcall	.+3832   	; 0x11c0 <__floatunsisf>
     2c8:	9b 01       	movw	r18, r22
     2ca:	ac 01       	movw	r20, r24
     2cc:	60 e0       	ldi	r22, 0x00	; 0
     2ce:	74 e2       	ldi	r23, 0x24	; 36
     2d0:	84 e7       	ldi	r24, 0x74	; 116
     2d2:	9b e4       	ldi	r25, 0x4B	; 75
     2d4:	dc d6       	rcall	.+3512   	; 0x108e <__divsf3>
     2d6:	9b 01       	movw	r18, r22
     2d8:	ac 01       	movw	r20, r24
     2da:	60 e0       	ldi	r22, 0x00	; 0
     2dc:	70 e0       	ldi	r23, 0x00	; 0
     2de:	80 e8       	ldi	r24, 0x80	; 128
     2e0:	9f e3       	ldi	r25, 0x3F	; 63
     2e2:	d5 d6       	rcall	.+3498   	; 0x108e <__divsf3>
     2e4:	9b 01       	movw	r18, r22
     2e6:	ac 01       	movw	r20, r24
        // Fraction of second needed to xmit one bit
        float bit_time = ((1.0 / float(speed)) / 8.0);
        // number of prescaled ticks needed to handle bit time @ speed
        ulticks = long(bit_time / clock_time);
     2e8:	c5 01       	movw	r24, r10
     2ea:	b4 01       	movw	r22, r8
     2ec:	d0 d6       	rcall	.+3488   	; 0x108e <__divsf3>
     2ee:	37 d7       	rcall	.+3694   	; 0x115e <__fixsfsi>
        // Test if ulticks fits in nticks bitwidth (with 1-tick safety margin)
        if ((ulticks > 1) && (ulticks < max_ticks))
     2f0:	2b 01       	movw	r4, r22
     2f2:	3c 01       	movw	r6, r24
     2f4:	f2 e0       	ldi	r31, 0x02	; 2
     2f6:	4f 1a       	sub	r4, r31
     2f8:	51 08       	sbc	r5, r1
     2fa:	61 08       	sbc	r6, r1
     2fc:	71 08       	sbc	r7, r1
     2fe:	2d ef       	ldi	r18, 0xFD	; 253
     300:	42 16       	cp	r4, r18
     302:	2f ef       	ldi	r18, 0xFF	; 255
     304:	52 06       	cpc	r5, r18
     306:	61 04       	cpc	r6, r1
     308:	71 04       	cpc	r7, r1
     30a:	68 f1       	brcs	.+90     	; 0x366 <vw_setup+0x11e>
        *nticks = 0;
        return 0;
    }

    // test increasing prescaler (divisor), decreasing ulticks until no overflow
    for (prescaler=1; prescaler < 7; prescaler += 1)
     30c:	1f 5f       	subi	r17, 0xFF	; 255
     30e:	17 30       	cpi	r17, 0x07	; 7
     310:	99 f6       	brne	.-90     	; 0x2b8 <vw_setup+0x70>
        }
        // Won't fit, check with next prescaler value
    }

    // Check for error
    if ((prescaler == 6) || (ulticks < 2) || (ulticks > max_ticks))
     312:	62 30       	cpi	r22, 0x02	; 2
     314:	71 05       	cpc	r23, r1
     316:	81 05       	cpc	r24, r1
     318:	91 05       	cpc	r25, r1
     31a:	38 f1       	brcs	.+78     	; 0x36a <vw_setup+0x122>
     31c:	61 15       	cp	r22, r1
     31e:	71 05       	cpc	r23, r1
     320:	e1 e0       	ldi	r30, 0x01	; 1
     322:	8e 07       	cpc	r24, r30
     324:	91 05       	cpc	r25, r1
     326:	08 f5       	brcc	.+66     	; 0x36a <vw_setup+0x122>

#else // ARDUINO
    // This is the path for most Arduinos
    // figure out prescaler value and counter match value
    prescaler = _timer_calc(speed, (uint16_t)-1, &nticks);
    if (!prescaler)
     328:	11 23       	and	r17, r17
     32a:	f9 f0       	breq	.+62     	; 0x36a <vw_setup+0x122>
    {
        return; // fault
    }

    TCCR1A = 0; // Output Compare pins disconnected
     32c:	1f bc       	out	0x2f, r1	; 47
    TCCR1B = _BV(WGM12); // Turn on CTC mode
     32e:	28 e0       	ldi	r18, 0x08	; 8
     330:	2e bd       	out	0x2e, r18	; 46

    // convert prescaler index to TCCRnB prescaler bits CS10, CS11, CS12
    TCCR1B |= prescaler;
     332:	2e b5       	in	r18, 0x2e	; 46
     334:	12 2b       	or	r17, r18
     336:	1e bd       	out	0x2e, r17	; 46

    // Caution: special procedures for setting 16 bit regs
    // is handled by the compiler
    OCR1A = nticks;
     338:	7b bd       	out	0x2b, r23	; 43
     33a:	6a bd       	out	0x2a, r22	; 42
#ifdef TIMSK1
    // atmega168
    TIMSK1 |= _BV(OCIE1A);
#else
    // others
    TIMSK |= _BV(OCIE1A);
     33c:	89 b7       	in	r24, 0x39	; 57
     33e:	80 61       	ori	r24, 0x10	; 16
     340:	89 bf       	out	0x39, r24	; 57
#endif // TIMSK1

#endif // __AVR_ATtiny85__

    // Set up digital IO pins
    pinMode(vw_tx_pin, OUTPUT);
     342:	61 e0       	ldi	r22, 0x01	; 1
     344:	80 91 60 00 	lds	r24, 0x0060
     348:	0b d6       	rcall	.+3094   	; 0xf60 <pinMode>
    pinMode(vw_rx_pin, INPUT);
     34a:	60 e0       	ldi	r22, 0x00	; 0
     34c:	80 91 61 00 	lds	r24, 0x0061
     350:	07 d6       	rcall	.+3086   	; 0xf60 <pinMode>
    pinMode(vw_ptt_pin, OUTPUT);
     352:	61 e0       	ldi	r22, 0x01	; 1
     354:	80 91 62 00 	lds	r24, 0x0062
     358:	03 d6       	rcall	.+3078   	; 0xf60 <pinMode>
    digitalWrite(vw_ptt_pin, vw_ptt_inverted);
     35a:	60 91 20 01 	lds	r22, 0x0120
     35e:	80 91 62 00 	lds	r24, 0x0062
     362:	3d d6       	rcall	.+3194   	; 0xfde <digitalWrite>
     364:	02 c0       	rjmp	.+4      	; 0x36a <vw_setup+0x122>
        }
        // Won't fit, check with next prescaler value
    }

    // Check for error
    if ((prescaler == 6) || (ulticks < 2) || (ulticks > max_ticks))
     366:	16 30       	cpi	r17, 0x06	; 6
     368:	c9 f6       	brne	.-78     	; 0x31c <vw_setup+0xd4>
    // Set up digital IO pins
    pinMode(vw_tx_pin, OUTPUT);
    pinMode(vw_rx_pin, INPUT);
    pinMode(vw_ptt_pin, OUTPUT);
    digitalWrite(vw_ptt_pin, vw_ptt_inverted);
}
     36a:	2e 96       	adiw	r28, 0x0e	; 14
     36c:	0f b6       	in	r0, 0x3f	; 63
     36e:	f8 94       	cli
     370:	de bf       	out	0x3e, r29	; 62
     372:	0f be       	out	0x3f, r0	; 63
     374:	cd bf       	out	0x3d, r28	; 61
     376:	df 91       	pop	r29
     378:	cf 91       	pop	r28
     37a:	1f 91       	pop	r17
     37c:	ff 90       	pop	r15
     37e:	ef 90       	pop	r14
     380:	bf 90       	pop	r11
     382:	af 90       	pop	r10
     384:	9f 90       	pop	r9
     386:	8f 90       	pop	r8
     388:	7f 90       	pop	r7
     38a:	6f 90       	pop	r6
     38c:	5f 90       	pop	r5
     38e:	4f 90       	pop	r4
     390:	08 95       	ret

00000392 <vw_tx_start>:
#endif // ARDUINO

// Start the transmitter, call when the tx buffer is ready to go and vw_tx_len is
// set to the total number of symbols to send
void vw_tx_start()
{
     392:	cf 93       	push	r28
    vw_tx_index = 0;
     394:	10 92 26 01 	sts	0x0126, r1
    vw_tx_bit = 0;
     398:	10 92 25 01 	sts	0x0125, r1
    vw_tx_sample = 0;
     39c:	10 92 24 01 	sts	0x0124, r1

    // Enable the transmitter hardware
    digitalWrite(vw_ptt_pin, true ^ vw_ptt_inverted);
     3a0:	60 91 20 01 	lds	r22, 0x0120
     3a4:	c1 e0       	ldi	r28, 0x01	; 1
     3a6:	6c 27       	eor	r22, r28
     3a8:	80 91 62 00 	lds	r24, 0x0062
     3ac:	18 d6       	rcall	.+3120   	; 0xfde <digitalWrite>

    // Next tick interrupt will send the first bit
    vw_tx_enabled = true;
     3ae:	c0 93 23 01 	sts	0x0123, r28
}
     3b2:	cf 91       	pop	r28
     3b4:	08 95       	ret

000003b6 <vw_tx_stop>:

// Stop the transmitter, call when all bits are sent
void vw_tx_stop()
{
    // Disable the transmitter hardware
    digitalWrite(vw_ptt_pin, false ^ vw_ptt_inverted);
     3b6:	60 91 20 01 	lds	r22, 0x0120
     3ba:	80 91 62 00 	lds	r24, 0x0062
     3be:	0f d6       	rcall	.+3102   	; 0xfde <digitalWrite>
    digitalWrite(vw_tx_pin, false);
     3c0:	60 e0       	ldi	r22, 0x00	; 0
     3c2:	80 91 60 00 	lds	r24, 0x0060
     3c6:	0b d6       	rcall	.+3094   	; 0xfde <digitalWrite>

    // No more ticks for the transmitter
    vw_tx_enabled = false;
     3c8:	10 92 23 01 	sts	0x0123, r1
     3cc:	08 95       	ret

000003ce <vw_wait_tx>:

// Wait for the transmitter to become available
// Busy-wait loop until the ISR says the message has been sent
void vw_wait_tx()
{
    while (vw_tx_enabled)
     3ce:	80 91 23 01 	lds	r24, 0x0123
     3d2:	81 11       	cpse	r24, r1
     3d4:	fc cf       	rjmp	.-8      	; 0x3ce <vw_wait_tx>
	;
}
     3d6:	08 95       	ret

000003d8 <vw_send>:
// Wait until transmitter is available and encode and queue the message
// into vw_tx_buf
// The message is raw bytes, with no packet structure imposed
// It is transmitted preceded a byte count and followed by 2 FCS bytes
uint8_t vw_send(uint8_t* buf, uint8_t len)
{
     3d8:	ef 92       	push	r14
     3da:	ff 92       	push	r15
     3dc:	1f 93       	push	r17
     3de:	cf 93       	push	r28
     3e0:	df 93       	push	r29
    uint8_t index = 0;
    uint16_t crc = 0xffff;
    uint8_t *p = vw_tx_buf + VW_HEADER_LEN; // start of the message area
    uint8_t count = len + 3; // Added byte count and FCS to get total number of bytes

    if (len > VW_MAX_PAYLOAD)
     3e2:	6c 31       	cpi	r22, 0x1C	; 28
     3e4:	08 f0       	brcs	.+2      	; 0x3e8 <vw_send+0x10>
     3e6:	b5 c0       	rjmp	.+362    	; 0x552 <__stack+0xf3>
     3e8:	16 2f       	mov	r17, r22
     3ea:	7c 01       	movw	r14, r24
{
    uint8_t i;
    uint8_t index = 0;
    uint16_t crc = 0xffff;
    uint8_t *p = vw_tx_buf + VW_HEADER_LEN; // start of the message area
    uint8_t count = len + 3; // Added byte count and FCS to get total number of bytes
     3ec:	c3 e0       	ldi	r28, 0x03	; 3
     3ee:	c6 0f       	add	r28, r22

    if (len > VW_MAX_PAYLOAD)
	return false;

    // Wait for transmitter to become available
    vw_wait_tx();
     3f0:	ee df       	rcall	.-36     	; 0x3ce <vw_wait_tx>
        "eor    %A0,__tmp_reg__"

        : "=d" (__ret)
        : "r" (__data), "0" (__crc)
        : "r0"
    );
     3f2:	2f ef       	ldi	r18, 0xFF	; 255
     3f4:	3f ef       	ldi	r19, 0xFF	; 255
     3f6:	2c 27       	eor	r18, r28
     3f8:	02 2e       	mov	r0, r18
     3fa:	22 95       	swap	r18
     3fc:	20 7f       	andi	r18, 0xF0	; 240
     3fe:	20 25       	eor	r18, r0
     400:	03 2e       	mov	r0, r19
     402:	32 2f       	mov	r19, r18
     404:	22 95       	swap	r18
     406:	2f 70       	andi	r18, 0x0F	; 15
     408:	02 26       	eor	r0, r18
     40a:	26 95       	lsr	r18
     40c:	32 27       	eor	r19, r18
     40e:	23 27       	eor	r18, r19
     410:	22 0f       	add	r18, r18
     412:	22 0f       	add	r18, r18
     414:	22 0f       	add	r18, r18
     416:	20 25       	eor	r18, r0

    // Encode the message length
    crc = _crc_ccitt_update(crc, count);
    p[index++] = symbols[count >> 4];
     418:	a3 e6       	ldi	r26, 0x63	; 99
     41a:	b0 e0       	ldi	r27, 0x00	; 0
     41c:	ec 2f       	mov	r30, r28
     41e:	f0 e0       	ldi	r31, 0x00	; 0
     420:	f5 95       	asr	r31
     422:	e7 95       	ror	r30
     424:	f5 95       	asr	r31
     426:	e7 95       	ror	r30
     428:	f5 95       	asr	r31
     42a:	e7 95       	ror	r30
     42c:	f5 95       	asr	r31
     42e:	e7 95       	ror	r30
     430:	ea 54       	subi	r30, 0x4A	; 74
     432:	ff 4f       	sbci	r31, 0xFF	; 255
     434:	80 81       	ld	r24, Z
     436:	18 96       	adiw	r26, 0x08	; 8
     438:	8c 93       	st	X, r24
     43a:	18 97       	sbiw	r26, 0x08	; 8
    p[index++] = symbols[count & 0xf];
     43c:	cf 70       	andi	r28, 0x0F	; 15
     43e:	ec 2f       	mov	r30, r28
     440:	f0 e0       	ldi	r31, 0x00	; 0
     442:	ea 54       	subi	r30, 0x4A	; 74
     444:	ff 4f       	sbci	r31, 0xFF	; 255
     446:	80 81       	ld	r24, Z
     448:	19 96       	adiw	r26, 0x09	; 9
     44a:	8c 93       	st	X, r24

    // Encode the message into 6 bit symbols. Each byte is converted into 
    // 2 6-bit symbols, high nybble first, low nybble second
    for (i = 0; i < len; i++)
     44c:	11 23       	and	r17, r17
     44e:	09 f4       	brne	.+2      	; 0x452 <vw_send+0x7a>
     450:	3e c0       	rjmp	.+124    	; 0x4ce <__stack+0x6f>
     452:	e7 01       	movw	r28, r14
     454:	ae e6       	ldi	r26, 0x6E	; 110
     456:	b0 e0       	ldi	r27, 0x00	; 0
     458:	8f ef       	ldi	r24, 0xFF	; 255
     45a:	81 0f       	add	r24, r17
     45c:	90 e0       	ldi	r25, 0x00	; 0
     45e:	01 96       	adiw	r24, 0x01	; 1
     460:	8e 0d       	add	r24, r14
     462:	9f 1d       	adc	r25, r15
     464:	ae 01       	movw	r20, r28
    {
	crc = _crc_ccitt_update(crc, buf[i]);
     466:	e9 91       	ld	r30, Y+
     468:	2e 27       	eor	r18, r30
     46a:	02 2e       	mov	r0, r18
     46c:	22 95       	swap	r18
     46e:	20 7f       	andi	r18, 0xF0	; 240
     470:	20 25       	eor	r18, r0
     472:	03 2e       	mov	r0, r19
     474:	32 2f       	mov	r19, r18
     476:	22 95       	swap	r18
     478:	2f 70       	andi	r18, 0x0F	; 15
     47a:	02 26       	eor	r0, r18
     47c:	26 95       	lsr	r18
     47e:	32 27       	eor	r19, r18
     480:	23 27       	eor	r18, r19
     482:	22 0f       	add	r18, r18
     484:	22 0f       	add	r18, r18
     486:	22 0f       	add	r18, r18
     488:	20 25       	eor	r18, r0
     48a:	bd 01       	movw	r22, r26
     48c:	61 50       	subi	r22, 0x01	; 1
     48e:	71 09       	sbc	r23, r1
	p[index++] = symbols[buf[i] >> 4];
     490:	f0 e0       	ldi	r31, 0x00	; 0
     492:	f5 95       	asr	r31
     494:	e7 95       	ror	r30
     496:	f5 95       	asr	r31
     498:	e7 95       	ror	r30
     49a:	f5 95       	asr	r31
     49c:	e7 95       	ror	r30
     49e:	f5 95       	asr	r31
     4a0:	e7 95       	ror	r30
     4a2:	ea 54       	subi	r30, 0x4A	; 74
     4a4:	ff 4f       	sbci	r31, 0xFF	; 255
     4a6:	f0 80       	ld	r15, Z
     4a8:	fb 01       	movw	r30, r22
     4aa:	f0 82       	st	Z, r15
	p[index++] = symbols[buf[i] & 0xf];
     4ac:	fa 01       	movw	r30, r20
     4ae:	40 81       	ld	r20, Z
     4b0:	e4 2f       	mov	r30, r20
     4b2:	ef 70       	andi	r30, 0x0F	; 15
     4b4:	f0 e0       	ldi	r31, 0x00	; 0
     4b6:	ea 54       	subi	r30, 0x4A	; 74
     4b8:	ff 4f       	sbci	r31, 0xFF	; 255
     4ba:	40 81       	ld	r20, Z
     4bc:	4c 93       	st	X, r20
     4be:	12 96       	adiw	r26, 0x02	; 2
    p[index++] = symbols[count >> 4];
    p[index++] = symbols[count & 0xf];

    // Encode the message into 6 bit symbols. Each byte is converted into 
    // 2 6-bit symbols, high nybble first, low nybble second
    for (i = 0; i < len; i++)
     4c0:	c8 17       	cp	r28, r24
     4c2:	d9 07       	cpc	r29, r25
     4c4:	09 f0       	breq	.+2      	; 0x4c8 <__stack+0x69>
     4c6:	ce cf       	rjmp	.-100    	; 0x464 <__stack+0x5>
     4c8:	1f 5f       	subi	r17, 0xFF	; 255
     4ca:	11 0f       	add	r17, r17
     4cc:	01 c0       	rjmp	.+2      	; 0x4d0 <__stack+0x71>
    vw_wait_tx();

    // Encode the message length
    crc = _crc_ccitt_update(crc, count);
    p[index++] = symbols[count >> 4];
    p[index++] = symbols[count & 0xf];
     4ce:	12 e0       	ldi	r17, 0x02	; 2
    }

    // Append the fcs, 16 bits before encoding (4 6-bit symbols after encoding)
    // Caution: VW expects the _ones_complement_ of the CCITT CRC-16 as the FCS
    // VW sends FCS as low byte then hi byte
    crc = ~crc;
     4d0:	f9 01       	movw	r30, r18
     4d2:	e0 95       	com	r30
     4d4:	f0 95       	com	r31
    p[index++] = symbols[(crc >> 4)  & 0xf];
     4d6:	c1 2f       	mov	r28, r17
     4d8:	d0 e0       	ldi	r29, 0x00	; 0
     4da:	c5 59       	subi	r28, 0x95	; 149
     4dc:	df 4f       	sbci	r29, 0xFF	; 255
     4de:	df 01       	movw	r26, r30
     4e0:	b2 95       	swap	r27
     4e2:	a2 95       	swap	r26
     4e4:	af 70       	andi	r26, 0x0F	; 15
     4e6:	ab 27       	eor	r26, r27
     4e8:	bf 70       	andi	r27, 0x0F	; 15
     4ea:	ab 27       	eor	r26, r27
     4ec:	af 70       	andi	r26, 0x0F	; 15
     4ee:	bb 27       	eor	r27, r27
     4f0:	aa 54       	subi	r26, 0x4A	; 74
     4f2:	bf 4f       	sbci	r27, 0xFF	; 255
     4f4:	8c 91       	ld	r24, X
     4f6:	88 83       	st	Y, r24
     4f8:	a1 e0       	ldi	r26, 0x01	; 1
     4fa:	a1 0f       	add	r26, r17
    p[index++] = symbols[crc & 0xf];
     4fc:	b0 e0       	ldi	r27, 0x00	; 0
     4fe:	a5 59       	subi	r26, 0x95	; 149
     500:	bf 4f       	sbci	r27, 0xFF	; 255
     502:	ef 01       	movw	r28, r30
     504:	cf 70       	andi	r28, 0x0F	; 15
     506:	dd 27       	eor	r29, r29
     508:	ca 54       	subi	r28, 0x4A	; 74
     50a:	df 4f       	sbci	r29, 0xFF	; 255
     50c:	88 81       	ld	r24, Y
     50e:	8c 93       	st	X, r24
     510:	a2 e0       	ldi	r26, 0x02	; 2
     512:	a1 0f       	add	r26, r17
    p[index++] = symbols[(crc >> 12) & 0xf];
     514:	b0 e0       	ldi	r27, 0x00	; 0
     516:	a5 59       	subi	r26, 0x95	; 149
     518:	bf 4f       	sbci	r27, 0xFF	; 255
     51a:	ef 01       	movw	r28, r30
     51c:	cd 2f       	mov	r28, r29
     51e:	dd 27       	eor	r29, r29
     520:	c2 95       	swap	r28
     522:	cf 70       	andi	r28, 0x0F	; 15
     524:	ca 54       	subi	r28, 0x4A	; 74
     526:	df 4f       	sbci	r29, 0xFF	; 255
     528:	88 81       	ld	r24, Y
     52a:	8c 93       	st	X, r24
     52c:	a3 e0       	ldi	r26, 0x03	; 3
     52e:	a1 0f       	add	r26, r17
    p[index++] = symbols[(crc >> 8)  & 0xf];
     530:	b0 e0       	ldi	r27, 0x00	; 0
     532:	a5 59       	subi	r26, 0x95	; 149
     534:	bf 4f       	sbci	r27, 0xFF	; 255
     536:	ef 2f       	mov	r30, r31
     538:	ff 27       	eor	r31, r31
     53a:	ef 70       	andi	r30, 0x0F	; 15
     53c:	ff 27       	eor	r31, r31
     53e:	ea 54       	subi	r30, 0x4A	; 74
     540:	ff 4f       	sbci	r31, 0xFF	; 255
     542:	80 81       	ld	r24, Z
     544:	8c 93       	st	X, r24

    // Total number of 6-bit symbols to send
    vw_tx_len = index + VW_HEADER_LEN;
     546:	14 5f       	subi	r17, 0xF4	; 244
     548:	10 93 27 01 	sts	0x0127, r17

    // Start the low level interrupt handler sending symbols
    vw_tx_start();
     54c:	22 df       	rcall	.-444    	; 0x392 <vw_tx_start>

    return true;
     54e:	81 e0       	ldi	r24, 0x01	; 1
     550:	01 c0       	rjmp	.+2      	; 0x554 <__stack+0xf5>
    uint16_t crc = 0xffff;
    uint8_t *p = vw_tx_buf + VW_HEADER_LEN; // start of the message area
    uint8_t count = len + 3; // Added byte count and FCS to get total number of bytes

    if (len > VW_MAX_PAYLOAD)
	return false;
     552:	80 e0       	ldi	r24, 0x00	; 0

    // Start the low level interrupt handler sending symbols
    vw_tx_start();

    return true;
}
     554:	df 91       	pop	r29
     556:	cf 91       	pop	r28
     558:	1f 91       	pop	r17
     55a:	ff 90       	pop	r15
     55c:	ef 90       	pop	r14
     55e:	08 95       	ret

00000560 <__vector_6>:
#else // Assume Arduino Uno (328p or similar)

SIGNAL(TIMER1_COMPA_vect)
#endif // __AVR_ATtiny85__

{
     560:	1f 92       	push	r1
     562:	0f 92       	push	r0
     564:	0f b6       	in	r0, 0x3f	; 63
     566:	0f 92       	push	r0
     568:	11 24       	eor	r1, r1
     56a:	2f 93       	push	r18
     56c:	3f 93       	push	r19
     56e:	4f 93       	push	r20
     570:	5f 93       	push	r21
     572:	6f 93       	push	r22
     574:	7f 93       	push	r23
     576:	8f 93       	push	r24
     578:	9f 93       	push	r25
     57a:	af 93       	push	r26
     57c:	bf 93       	push	r27
     57e:	ef 93       	push	r30
     580:	ff 93       	push	r31
    if (vw_rx_enabled && !vw_tx_enabled)
     582:	80 91 19 01 	lds	r24, 0x0119
     586:	88 23       	and	r24, r24
     588:	29 f0       	breq	.+10     	; 0x594 <__vector_6+0x34>
     58a:	80 91 23 01 	lds	r24, 0x0123
     58e:	88 23       	and	r24, r24
     590:	09 f4       	brne	.+2      	; 0x594 <__vector_6+0x34>
     592:	4c c0       	rjmp	.+152    	; 0x62c <__vector_6+0xcc>
	vw_rx_sample = digitalRead(vw_rx_pin);
    
    // Do transmitter stuff first to reduce transmitter bit jitter due 
    // to variable receiver processing
    if (vw_tx_enabled && vw_tx_sample++ == 0)
     594:	80 91 23 01 	lds	r24, 0x0123
     598:	88 23       	and	r24, r24
     59a:	c9 f1       	breq	.+114    	; 0x60e <__vector_6+0xae>
     59c:	80 91 24 01 	lds	r24, 0x0124
     5a0:	91 e0       	ldi	r25, 0x01	; 1
     5a2:	98 0f       	add	r25, r24
     5a4:	90 93 24 01 	sts	0x0124, r25
     5a8:	81 11       	cpse	r24, r1
     5aa:	31 c0       	rjmp	.+98     	; 0x60e <__vector_6+0xae>
    {
	// Send next bit
	// Symbols are sent LSB first
	// Finished sending the whole message? (after waiting one bit period 
	// since the last bit)
	if (vw_tx_index >= vw_tx_len)
     5ac:	e0 91 26 01 	lds	r30, 0x0126
     5b0:	80 91 27 01 	lds	r24, 0x0127
     5b4:	e8 17       	cp	r30, r24
     5b6:	58 f0       	brcs	.+22     	; 0x5ce <__vector_6+0x6e>
	{
	    vw_tx_stop();
     5b8:	fe de       	rcall	.-516    	; 0x3b6 <vw_tx_stop>
	    vw_tx_msg_count++;
     5ba:	80 91 21 01 	lds	r24, 0x0121
     5be:	90 91 22 01 	lds	r25, 0x0122
     5c2:	01 96       	adiw	r24, 0x01	; 1
     5c4:	90 93 22 01 	sts	0x0122, r25
     5c8:	80 93 21 01 	sts	0x0121, r24
     5cc:	20 c0       	rjmp	.+64     	; 0x60e <__vector_6+0xae>
	}
	else
	{
	    digitalWrite(vw_tx_pin, vw_tx_buf[vw_tx_index] & (1 << vw_tx_bit++));
     5ce:	f0 e0       	ldi	r31, 0x00	; 0
     5d0:	ed 59       	subi	r30, 0x9D	; 157
     5d2:	ff 4f       	sbci	r31, 0xFF	; 255
     5d4:	90 81       	ld	r25, Z
     5d6:	80 91 25 01 	lds	r24, 0x0125
     5da:	21 e0       	ldi	r18, 0x01	; 1
     5dc:	28 0f       	add	r18, r24
     5de:	20 93 25 01 	sts	0x0125, r18
     5e2:	61 e0       	ldi	r22, 0x01	; 1
     5e4:	70 e0       	ldi	r23, 0x00	; 0
     5e6:	02 c0       	rjmp	.+4      	; 0x5ec <__vector_6+0x8c>
     5e8:	66 0f       	add	r22, r22
     5ea:	77 1f       	adc	r23, r23
     5ec:	8a 95       	dec	r24
     5ee:	e2 f7       	brpl	.-8      	; 0x5e8 <__vector_6+0x88>
     5f0:	69 23       	and	r22, r25
     5f2:	80 91 60 00 	lds	r24, 0x0060
     5f6:	f3 d4       	rcall	.+2534   	; 0xfde <digitalWrite>
	    if (vw_tx_bit >= 6)
     5f8:	80 91 25 01 	lds	r24, 0x0125
     5fc:	86 30       	cpi	r24, 0x06	; 6
     5fe:	38 f0       	brcs	.+14     	; 0x60e <__vector_6+0xae>
	    {
		vw_tx_bit = 0;
     600:	10 92 25 01 	sts	0x0125, r1
		vw_tx_index++;
     604:	80 91 26 01 	lds	r24, 0x0126
     608:	8f 5f       	subi	r24, 0xFF	; 255
     60a:	80 93 26 01 	sts	0x0126, r24
	    }
	}
    }
    if (vw_tx_sample > 7)
     60e:	80 91 24 01 	lds	r24, 0x0124
     612:	88 30       	cpi	r24, 0x08	; 8
     614:	10 f0       	brcs	.+4      	; 0x61a <__vector_6+0xba>
	vw_tx_sample = 0;
     616:	10 92 24 01 	sts	0x0124, r1
    
    if (vw_rx_enabled && !vw_tx_enabled)
     61a:	80 91 19 01 	lds	r24, 0x0119
     61e:	88 23       	and	r24, r24
     620:	61 f0       	breq	.+24     	; 0x63a <__vector_6+0xda>
     622:	80 91 23 01 	lds	r24, 0x0123
     626:	88 23       	and	r24, r24
     628:	39 f0       	breq	.+14     	; 0x638 <__vector_6+0xd8>
     62a:	07 c0       	rjmp	.+14     	; 0x63a <__vector_6+0xda>
SIGNAL(TIMER1_COMPA_vect)
#endif // __AVR_ATtiny85__

{
    if (vw_rx_enabled && !vw_tx_enabled)
	vw_rx_sample = digitalRead(vw_rx_pin);
     62c:	80 91 61 00 	lds	r24, 0x0061
     630:	06 d5       	rcall	.+2572   	; 0x103e <digitalRead>
     632:	80 93 1f 01 	sts	0x011F, r24
     636:	ae cf       	rjmp	.-164    	; 0x594 <__vector_6+0x34>
    }
    if (vw_tx_sample > 7)
	vw_tx_sample = 0;
    
    if (vw_rx_enabled && !vw_tx_enabled)
	vw_pll();
     638:	60 dd       	rcall	.-1344   	; 0xfa <vw_pll>
}
     63a:	ff 91       	pop	r31
     63c:	ef 91       	pop	r30
     63e:	bf 91       	pop	r27
     640:	af 91       	pop	r26
     642:	9f 91       	pop	r25
     644:	8f 91       	pop	r24
     646:	7f 91       	pop	r23
     648:	6f 91       	pop	r22
     64a:	5f 91       	pop	r21
     64c:	4f 91       	pop	r20
     64e:	3f 91       	pop	r19
     650:	2f 91       	pop	r18
     652:	0f 90       	pop	r0
     654:	0f be       	out	0x3f, r0	; 63
     656:	0f 90       	pop	r0
     658:	1f 90       	pop	r1
     65a:	18 95       	reti

0000065c <_Z5startv>:
}


void start()
{    
	 detachInterrupt(0);
     65c:	80 e0       	ldi	r24, 0x00	; 0
     65e:	a8 d3       	rcall	.+1872   	; 0xdb0 <detachInterrupt>
	 //digitalWrite(13,!digitalRead(13));
	 
	 if(!digitalRead(BOTTOM_SENSOR))
     660:	82 e0       	ldi	r24, 0x02	; 2
     662:	ed d4       	rcall	.+2522   	; 0x103e <digitalRead>
     664:	89 2b       	or	r24, r25
     666:	41 f4       	brne	.+16     	; 0x678 <_Z5startv+0x1c>
	 {
        if(digitalRead(TOP_SENSOR))
     668:	83 e0       	ldi	r24, 0x03	; 3
     66a:	e9 d4       	rcall	.+2514   	; 0x103e <digitalRead>
     66c:	89 2b       	or	r24, r25
     66e:	51 f0       	breq	.+20     	; 0x684 <_Z5startv+0x28>
		{
	 	    start_flag=true;
     670:	81 e0       	ldi	r24, 0x01	; 1
     672:	80 93 29 01 	sts	0x0129, r24
     676:	08 95       	ret
			 
		}
	 }
	 
	 else attachInterrupt(0,start,LOW);
     678:	40 e0       	ldi	r20, 0x00	; 0
     67a:	50 e0       	ldi	r21, 0x00	; 0
     67c:	6e e2       	ldi	r22, 0x2E	; 46
     67e:	73 e0       	ldi	r23, 0x03	; 3
     680:	80 e0       	ldi	r24, 0x00	; 0
     682:	73 d3       	rcall	.+1766   	; 0xd6a <attachInterrupt>
     684:	08 95       	ret

00000686 <_Z4stopv>:
	
}

void stop()
{  
	detachInterrupt(1);
     686:	81 e0       	ldi	r24, 0x01	; 1
     688:	93 d3       	rcall	.+1830   	; 0xdb0 <detachInterrupt>
	
	//digitalWrite(13,!digitalRead(13));
	
    if(!digitalRead(TOP_SENSOR))
     68a:	83 e0       	ldi	r24, 0x03	; 3
     68c:	d8 d4       	rcall	.+2480   	; 0x103e <digitalRead>
     68e:	89 2b       	or	r24, r25
     690:	21 f4       	brne	.+8      	; 0x69a <_Z4stopv+0x14>
	{
		stop_flag=true;
     692:	81 e0       	ldi	r24, 0x01	; 1
     694:	80 93 28 01 	sts	0x0128, r24
     698:	08 95       	ret
		
	}
	
	else attachInterrupt(1,stop,LOW);
     69a:	40 e0       	ldi	r20, 0x00	; 0
     69c:	50 e0       	ldi	r21, 0x00	; 0
     69e:	63 e4       	ldi	r22, 0x43	; 67
     6a0:	73 e0       	ldi	r23, 0x03	; 3
     6a2:	81 e0       	ldi	r24, 0x01	; 1
     6a4:	62 d3       	rcall	.+1732   	; 0xd6a <attachInterrupt>
     6a6:	08 95       	ret

000006a8 <_Z10real_startv>:
}

void real_start()
{
	start_flag=false;
     6a8:	10 92 29 01 	sts	0x0129, r1
	
	
	vw_send((uint8_t*)ADDRESS,strlen(ADDRESS));
     6ac:	67 e0       	ldi	r22, 0x07	; 7
     6ae:	86 ec       	ldi	r24, 0xC6	; 198
     6b0:	90 e0       	ldi	r25, 0x00	; 0
     6b2:	92 de       	rcall	.-732    	; 0x3d8 <vw_send>
	vw_wait_tx();
     6b4:	8c de       	rcall	.-744    	; 0x3ce <vw_wait_tx>
	vw_send((uint8_t*)ON,strlen(ON));
     6b6:	67 e0       	ldi	r22, 0x07	; 7
     6b8:	8e ec       	ldi	r24, 0xCE	; 206
     6ba:	90 e0       	ldi	r25, 0x00	; 0
     6bc:	8d de       	rcall	.-742    	; 0x3d8 <vw_send>
	vw_wait_tx();
     6be:	87 de       	rcall	.-754    	; 0x3ce <vw_wait_tx>
	attachInterrupt(1,stop,LOW);
     6c0:	40 e0       	ldi	r20, 0x00	; 0
     6c2:	50 e0       	ldi	r21, 0x00	; 0
     6c4:	63 e4       	ldi	r22, 0x43	; 67
     6c6:	73 e0       	ldi	r23, 0x03	; 3
     6c8:	81 e0       	ldi	r24, 0x01	; 1
     6ca:	4f d3       	rcall	.+1694   	; 0xd6a <attachInterrupt>
     6cc:	08 95       	ret

000006ce <_Z9real_stopv>:
	
}

void real_stop()
{
	stop_flag=false;
     6ce:	10 92 28 01 	sts	0x0128, r1
	vw_send((uint8_t*)ADDRESS,strlen(ADDRESS));
     6d2:	67 e0       	ldi	r22, 0x07	; 7
     6d4:	86 ec       	ldi	r24, 0xC6	; 198
     6d6:	90 e0       	ldi	r25, 0x00	; 0
     6d8:	7f de       	rcall	.-770    	; 0x3d8 <vw_send>
	vw_wait_tx();
     6da:	79 de       	rcall	.-782    	; 0x3ce <vw_wait_tx>
	vw_send((uint8_t*)OFF,strlen(OFF));
     6dc:	67 e0       	ldi	r22, 0x07	; 7
     6de:	86 ed       	ldi	r24, 0xD6	; 214
     6e0:	90 e0       	ldi	r25, 0x00	; 0
     6e2:	7a de       	rcall	.-780    	; 0x3d8 <vw_send>
	vw_wait_tx();
     6e4:	74 de       	rcall	.-792    	; 0x3ce <vw_wait_tx>
	
	if(digitalRead(BOTTOM_SENSOR))
     6e6:	82 e0       	ldi	r24, 0x02	; 2
     6e8:	aa d4       	rcall	.+2388   	; 0x103e <digitalRead>
     6ea:	89 2b       	or	r24, r25
     6ec:	31 f0       	breq	.+12     	; 0x6fa <_Z9real_stopv+0x2c>
	attachInterrupt(0,start,LOW);
     6ee:	40 e0       	ldi	r20, 0x00	; 0
     6f0:	50 e0       	ldi	r21, 0x00	; 0
     6f2:	6e e2       	ldi	r22, 0x2E	; 46
     6f4:	73 e0       	ldi	r23, 0x03	; 3
     6f6:	80 e0       	ldi	r24, 0x00	; 0
     6f8:	38 d3       	rcall	.+1648   	; 0xd6a <attachInterrupt>
     6fa:	08 95       	ret

000006fc <setup>:



void setup() 
{
  DDRB=0;
     6fc:	17 ba       	out	0x17, r1	; 23
  DDRC=0;
     6fe:	14 ba       	out	0x14, r1	; 20
  DDRD=0;
     700:	11 ba       	out	0x11, r1	; 17
  PORTB=~(1<<4);
     702:	8f ee       	ldi	r24, 0xEF	; 239
     704:	88 bb       	out	0x18, r24	; 24
  PORTC=0xff;
     706:	8f ef       	ldi	r24, 0xFF	; 255
     708:	85 bb       	out	0x15, r24	; 21
  PORTD=0xff;
     70a:	82 bb       	out	0x12, r24	; 18
  ACSR|=(1<<ACD);
     70c:	47 9a       	sbi	0x08, 7	; 8
  set_sleep_mode(SLEEP_MODE_PWR_DOWN); 
     70e:	85 b7       	in	r24, 0x35	; 53
     710:	8f 78       	andi	r24, 0x8F	; 143
     712:	80 62       	ori	r24, 0x20	; 32
     714:	85 bf       	out	0x35, r24	; 53
  
  
  vw_set_tx_pin(TX_PIN);
     716:	8c e0       	ldi	r24, 0x0C	; 12
     718:	ed dc       	rcall	.-1574   	; 0xf4 <vw_set_tx_pin>
  vw_setup(RATE);
     71a:	88 e2       	ldi	r24, 0x28	; 40
     71c:	93 e2       	ldi	r25, 0x23	; 35
     71e:	94 dd       	rcall	.-1240   	; 0x248 <vw_setup>

  
  real_stop();
     720:	d6 df       	rcall	.-84     	; 0x6ce <_Z9real_stopv>
  
  if(!digitalRead(BOTTOM_SENSOR)&&digitalRead(TOP_SENSOR))
     722:	82 e0       	ldi	r24, 0x02	; 2
     724:	8c d4       	rcall	.+2328   	; 0x103e <digitalRead>
     726:	89 2b       	or	r24, r25
     728:	41 f4       	brne	.+16     	; 0x73a <setup+0x3e>
     72a:	83 e0       	ldi	r24, 0x03	; 3
     72c:	88 d4       	rcall	.+2320   	; 0x103e <digitalRead>
     72e:	89 2b       	or	r24, r25
     730:	21 f0       	breq	.+8      	; 0x73a <setup+0x3e>
  {
	  start_flag=true;
     732:	81 e0       	ldi	r24, 0x01	; 1
     734:	80 93 29 01 	sts	0x0129, r24
     738:	08 95       	ret
  }
  
  else attachInterrupt(0,start,LOW);
     73a:	40 e0       	ldi	r20, 0x00	; 0
     73c:	50 e0       	ldi	r21, 0x00	; 0
     73e:	6e e2       	ldi	r22, 0x2E	; 46
     740:	73 e0       	ldi	r23, 0x03	; 3
     742:	80 e0       	ldi	r24, 0x00	; 0
     744:	12 d3       	rcall	.+1572   	; 0xd6a <attachInterrupt>
     746:	08 95       	ret

00000748 <loop>:
  }

void loop() 
{
   
   if(start_flag)
     748:	80 91 29 01 	lds	r24, 0x0129
     74c:	88 23       	and	r24, r24
     74e:	11 f0       	breq	.+4      	; 0x754 <loop+0xc>
   real_start();
     750:	ab df       	rcall	.-170    	; 0x6a8 <_Z10real_startv>
     752:	04 c0       	rjmp	.+8      	; 0x75c <loop+0x14>
   
   else if(stop_flag)
     754:	80 91 28 01 	lds	r24, 0x0128
     758:	81 11       	cpse	r24, r1
   real_stop();
     75a:	b9 df       	rcall	.-142    	; 0x6ce <_Z9real_stopv>
   
   #ifdef SLEEP
   sleep_enable(); 
     75c:	85 b7       	in	r24, 0x35	; 53
     75e:	80 68       	ori	r24, 0x80	; 128
     760:	85 bf       	out	0x35, r24	; 53
   sleep_mode();
     762:	85 b7       	in	r24, 0x35	; 53
     764:	80 68       	ori	r24, 0x80	; 128
     766:	85 bf       	out	0x35, r24	; 53
     768:	88 95       	sleep
     76a:	85 b7       	in	r24, 0x35	; 53
     76c:	8f 77       	andi	r24, 0x7F	; 127
     76e:	85 bf       	out	0x35, r24	; 53
     770:	08 95       	ret

00000772 <_ZN14HardwareSerial9availableEv>:
  // clear any received data
  _rx_buffer_head = _rx_buffer_tail;
}

int HardwareSerial::available(void)
{
     772:	fc 01       	movw	r30, r24
  return ((unsigned int)(SERIAL_RX_BUFFER_SIZE + _rx_buffer_head - _rx_buffer_tail)) % SERIAL_RX_BUFFER_SIZE;
     774:	91 8d       	ldd	r25, Z+25	; 0x19
     776:	22 8d       	ldd	r18, Z+26	; 0x1a
     778:	89 2f       	mov	r24, r25
     77a:	90 e0       	ldi	r25, 0x00	; 0
     77c:	80 5c       	subi	r24, 0xC0	; 192
     77e:	9f 4f       	sbci	r25, 0xFF	; 255
     780:	82 1b       	sub	r24, r18
     782:	91 09       	sbc	r25, r1
}
     784:	8f 73       	andi	r24, 0x3F	; 63
     786:	99 27       	eor	r25, r25
     788:	08 95       	ret

0000078a <_ZN14HardwareSerial4peekEv>:

int HardwareSerial::peek(void)
{
     78a:	fc 01       	movw	r30, r24
  if (_rx_buffer_head == _rx_buffer_tail) {
     78c:	91 8d       	ldd	r25, Z+25	; 0x19
     78e:	82 8d       	ldd	r24, Z+26	; 0x1a
     790:	98 17       	cp	r25, r24
     792:	31 f0       	breq	.+12     	; 0x7a0 <_ZN14HardwareSerial4peekEv+0x16>
    return -1;
  } else {
    return _rx_buffer[_rx_buffer_tail];
     794:	82 8d       	ldd	r24, Z+26	; 0x1a
     796:	e8 0f       	add	r30, r24
     798:	f1 1d       	adc	r31, r1
     79a:	85 8d       	ldd	r24, Z+29	; 0x1d
     79c:	90 e0       	ldi	r25, 0x00	; 0
     79e:	08 95       	ret
}

int HardwareSerial::peek(void)
{
  if (_rx_buffer_head == _rx_buffer_tail) {
    return -1;
     7a0:	8f ef       	ldi	r24, 0xFF	; 255
     7a2:	9f ef       	ldi	r25, 0xFF	; 255
  } else {
    return _rx_buffer[_rx_buffer_tail];
  }
}
     7a4:	08 95       	ret

000007a6 <_ZN14HardwareSerial4readEv>:

int HardwareSerial::read(void)
{
     7a6:	fc 01       	movw	r30, r24
  // if the head isn't ahead of the tail, we don't have any characters
  if (_rx_buffer_head == _rx_buffer_tail) {
     7a8:	91 8d       	ldd	r25, Z+25	; 0x19
     7aa:	82 8d       	ldd	r24, Z+26	; 0x1a
     7ac:	98 17       	cp	r25, r24
     7ae:	61 f0       	breq	.+24     	; 0x7c8 <_ZN14HardwareSerial4readEv+0x22>
    return -1;
  } else {
    unsigned char c = _rx_buffer[_rx_buffer_tail];
     7b0:	82 8d       	ldd	r24, Z+26	; 0x1a
     7b2:	df 01       	movw	r26, r30
     7b4:	a8 0f       	add	r26, r24
     7b6:	b1 1d       	adc	r27, r1
     7b8:	5d 96       	adiw	r26, 0x1d	; 29
     7ba:	8c 91       	ld	r24, X
    _rx_buffer_tail = (rx_buffer_index_t)(_rx_buffer_tail + 1) % SERIAL_RX_BUFFER_SIZE;
     7bc:	92 8d       	ldd	r25, Z+26	; 0x1a
     7be:	9f 5f       	subi	r25, 0xFF	; 255
     7c0:	9f 73       	andi	r25, 0x3F	; 63
     7c2:	92 8f       	std	Z+26, r25	; 0x1a
    return c;
     7c4:	90 e0       	ldi	r25, 0x00	; 0
     7c6:	08 95       	ret

int HardwareSerial::read(void)
{
  // if the head isn't ahead of the tail, we don't have any characters
  if (_rx_buffer_head == _rx_buffer_tail) {
    return -1;
     7c8:	8f ef       	ldi	r24, 0xFF	; 255
     7ca:	9f ef       	ldi	r25, 0xFF	; 255
  } else {
    unsigned char c = _rx_buffer[_rx_buffer_tail];
    _rx_buffer_tail = (rx_buffer_index_t)(_rx_buffer_tail + 1) % SERIAL_RX_BUFFER_SIZE;
    return c;
  }
}
     7cc:	08 95       	ret

000007ce <_Z14serialEventRunv>:
#endif

void serialEventRun(void)
{
#if defined(HAVE_HWSERIAL0)
  if (Serial0_available && serialEvent && Serial0_available()) serialEvent();
     7ce:	89 ee       	ldi	r24, 0xE9	; 233
     7d0:	94 e0       	ldi	r25, 0x04	; 4
     7d2:	89 2b       	or	r24, r25
     7d4:	39 f0       	breq	.+14     	; 0x7e4 <_Z14serialEventRunv+0x16>
     7d6:	80 e0       	ldi	r24, 0x00	; 0
     7d8:	90 e0       	ldi	r25, 0x00	; 0
     7da:	89 2b       	or	r24, r25
     7dc:	19 f0       	breq	.+6      	; 0x7e4 <_Z14serialEventRunv+0x16>
     7de:	f9 d0       	rcall	.+498    	; 0x9d2 <_Z17Serial0_availablev>
     7e0:	81 11       	cpse	r24, r1
     7e2:	0e dc       	rcall	.-2020   	; 0x0 <__vectors>
     7e4:	08 95       	ret

000007e6 <_ZN14HardwareSerial17_tx_udr_empty_irqEv>:
}

// Actual interrupt handlers //////////////////////////////////////////////////////////////

void HardwareSerial::_tx_udr_empty_irq(void)
{
     7e6:	fc 01       	movw	r30, r24
  // If interrupts are enabled, there must be more data in the output
  // buffer. Send the next byte
  unsigned char c = _tx_buffer[_tx_buffer_tail];
     7e8:	84 8d       	ldd	r24, Z+28	; 0x1c
     7ea:	df 01       	movw	r26, r30
     7ec:	a8 0f       	add	r26, r24
     7ee:	b1 1d       	adc	r27, r1
     7f0:	a3 5a       	subi	r26, 0xA3	; 163
     7f2:	bf 4f       	sbci	r27, 0xFF	; 255
     7f4:	8c 91       	ld	r24, X
  _tx_buffer_tail = (_tx_buffer_tail + 1) % SERIAL_TX_BUFFER_SIZE;
     7f6:	24 8d       	ldd	r18, Z+28	; 0x1c
     7f8:	30 e0       	ldi	r19, 0x00	; 0
     7fa:	2f 5f       	subi	r18, 0xFF	; 255
     7fc:	3f 4f       	sbci	r19, 0xFF	; 255
     7fe:	2f 73       	andi	r18, 0x3F	; 63
     800:	30 78       	andi	r19, 0x80	; 128
     802:	33 23       	and	r19, r19
     804:	34 f4       	brge	.+12     	; 0x812 <_ZN14HardwareSerial17_tx_udr_empty_irqEv+0x2c>
     806:	21 50       	subi	r18, 0x01	; 1
     808:	31 09       	sbc	r19, r1
     80a:	20 6c       	ori	r18, 0xC0	; 192
     80c:	3f 6f       	ori	r19, 0xFF	; 255
     80e:	2f 5f       	subi	r18, 0xFF	; 255
     810:	3f 4f       	sbci	r19, 0xFF	; 255
     812:	24 8f       	std	Z+28, r18	; 0x1c

  *_udr = c;
     814:	a6 89       	ldd	r26, Z+22	; 0x16
     816:	b7 89       	ldd	r27, Z+23	; 0x17
     818:	8c 93       	st	X, r24

  // clear the TXC bit -- "can be cleared by writing a one to its bit
  // location". This makes sure flush() won't return until the bytes
  // actually got written
  sbi(*_ucsra, TXC0);
     81a:	a0 89       	ldd	r26, Z+16	; 0x10
     81c:	b1 89       	ldd	r27, Z+17	; 0x11
     81e:	8c 91       	ld	r24, X
     820:	80 64       	ori	r24, 0x40	; 64
     822:	8c 93       	st	X, r24

  if (_tx_buffer_head == _tx_buffer_tail) {
     824:	93 8d       	ldd	r25, Z+27	; 0x1b
     826:	84 8d       	ldd	r24, Z+28	; 0x1c
     828:	98 13       	cpse	r25, r24
     82a:	06 c0       	rjmp	.+12     	; 0x838 <_ZN14HardwareSerial17_tx_udr_empty_irqEv+0x52>
    // Buffer empty, so disable interrupts
    cbi(*_ucsrb, UDRIE0);
     82c:	02 88       	ldd	r0, Z+18	; 0x12
     82e:	f3 89       	ldd	r31, Z+19	; 0x13
     830:	e0 2d       	mov	r30, r0
     832:	80 81       	ld	r24, Z
     834:	8f 7d       	andi	r24, 0xDF	; 223
     836:	80 83       	st	Z, r24
     838:	08 95       	ret

0000083a <_ZN14HardwareSerial5flushEv>:
  if (head >= tail) return SERIAL_TX_BUFFER_SIZE - 1 - head + tail;
  return tail - head - 1;
}

void HardwareSerial::flush()
{
     83a:	cf 93       	push	r28
     83c:	df 93       	push	r29
     83e:	ec 01       	movw	r28, r24
  // If we have never written a byte, no need to flush. This special
  // case is needed since there is no way to force the TXC (transmit
  // complete) bit to 1 during initialization
  if (!_written)
     840:	88 8d       	ldd	r24, Y+24	; 0x18
     842:	81 11       	cpse	r24, r1
     844:	0e c0       	rjmp	.+28     	; 0x862 <_ZN14HardwareSerial5flushEv+0x28>
     846:	17 c0       	rjmp	.+46     	; 0x876 <_ZN14HardwareSerial5flushEv+0x3c>
    return;

  while (bit_is_set(*_ucsrb, UDRIE0) || bit_is_clear(*_ucsra, TXC0)) {
    if (bit_is_clear(SREG, SREG_I) && bit_is_set(*_ucsrb, UDRIE0))
     848:	0f b6       	in	r0, 0x3f	; 63
     84a:	07 fc       	sbrc	r0, 7
     84c:	0c c0       	rjmp	.+24     	; 0x866 <_ZN14HardwareSerial5flushEv+0x2c>
     84e:	90 81       	ld	r25, Z
     850:	95 ff       	sbrs	r25, 5
     852:	09 c0       	rjmp	.+18     	; 0x866 <_ZN14HardwareSerial5flushEv+0x2c>
	// Interrupts are globally disabled, but the DR empty
	// interrupt should be enabled, so poll the DR empty flag to
	// prevent deadlock
	if (bit_is_set(*_ucsra, UDRE0))
     854:	a8 89       	ldd	r26, Y+16	; 0x10
     856:	b9 89       	ldd	r27, Y+17	; 0x11
     858:	8c 91       	ld	r24, X
     85a:	85 ff       	sbrs	r24, 5
     85c:	04 c0       	rjmp	.+8      	; 0x866 <_ZN14HardwareSerial5flushEv+0x2c>
	  _tx_udr_empty_irq();
     85e:	ce 01       	movw	r24, r28
     860:	c2 df       	rcall	.-124    	; 0x7e6 <_ZN14HardwareSerial17_tx_udr_empty_irqEv>
  // case is needed since there is no way to force the TXC (transmit
  // complete) bit to 1 during initialization
  if (!_written)
    return;

  while (bit_is_set(*_ucsrb, UDRIE0) || bit_is_clear(*_ucsra, TXC0)) {
     862:	ea 89       	ldd	r30, Y+18	; 0x12
     864:	fb 89       	ldd	r31, Y+19	; 0x13
     866:	90 81       	ld	r25, Z
     868:	95 fd       	sbrc	r25, 5
     86a:	ee cf       	rjmp	.-36     	; 0x848 <_ZN14HardwareSerial5flushEv+0xe>
     86c:	a8 89       	ldd	r26, Y+16	; 0x10
     86e:	b9 89       	ldd	r27, Y+17	; 0x11
     870:	8c 91       	ld	r24, X
     872:	86 ff       	sbrs	r24, 6
     874:	e9 cf       	rjmp	.-46     	; 0x848 <_ZN14HardwareSerial5flushEv+0xe>
	if (bit_is_set(*_ucsra, UDRE0))
	  _tx_udr_empty_irq();
  }
  // If we get here, nothing is queued anymore (DRIE is disabled) and
  // the hardware finished tranmission (TXC is set).
}
     876:	df 91       	pop	r29
     878:	cf 91       	pop	r28
     87a:	08 95       	ret

0000087c <_ZN14HardwareSerial5writeEh>:

size_t HardwareSerial::write(uint8_t c)
{
     87c:	0f 93       	push	r16
     87e:	1f 93       	push	r17
     880:	cf 93       	push	r28
     882:	df 93       	push	r29
     884:	fc 01       	movw	r30, r24
  _written = true;
     886:	81 e0       	ldi	r24, 0x01	; 1
     888:	80 8f       	std	Z+24, r24	; 0x18
  // If the buffer and the data register is empty, just write the byte
  // to the data register and be done. This shortcut helps
  // significantly improve the effective datarate at high (>
  // 500kbit/s) bitrates, where interrupt overhead becomes a slowdown.
  if (_tx_buffer_head == _tx_buffer_tail && bit_is_set(*_ucsra, UDRE0)) {
     88a:	93 8d       	ldd	r25, Z+27	; 0x1b
     88c:	84 8d       	ldd	r24, Z+28	; 0x1c
     88e:	98 13       	cpse	r25, r24
     890:	21 c0       	rjmp	.+66     	; 0x8d4 <_ZN14HardwareSerial5writeEh+0x58>
     892:	a0 89       	ldd	r26, Z+16	; 0x10
     894:	b1 89       	ldd	r27, Z+17	; 0x11
     896:	8c 91       	ld	r24, X
     898:	85 fd       	sbrc	r24, 5
     89a:	2e c0       	rjmp	.+92     	; 0x8f8 <_ZN14HardwareSerial5writeEh+0x7c>
     89c:	1b c0       	rjmp	.+54     	; 0x8d4 <_ZN14HardwareSerial5writeEh+0x58>
  tx_buffer_index_t i = (_tx_buffer_head + 1) % SERIAL_TX_BUFFER_SIZE;
	
  // If the output buffer is full, there's nothing for it other than to 
  // wait for the interrupt handler to empty it a bit
  while (i == _tx_buffer_tail) {
    if (bit_is_clear(SREG, SREG_I)) {
     89e:	0f b6       	in	r0, 0x3f	; 63
     8a0:	07 fc       	sbrc	r0, 7
     8a2:	07 c0       	rjmp	.+14     	; 0x8b2 <_ZN14HardwareSerial5writeEh+0x36>
      // Interrupts are disabled, so we'll have to poll the data
      // register empty flag ourselves. If it is set, pretend an
      // interrupt has happened and call the handler to free up
      // space for us.
      if(bit_is_set(*_ucsra, UDRE0))
     8a4:	e8 89       	ldd	r30, Y+16	; 0x10
     8a6:	f9 89       	ldd	r31, Y+17	; 0x11
     8a8:	80 81       	ld	r24, Z
     8aa:	85 ff       	sbrs	r24, 5
     8ac:	02 c0       	rjmp	.+4      	; 0x8b2 <_ZN14HardwareSerial5writeEh+0x36>
	_tx_udr_empty_irq();
     8ae:	ce 01       	movw	r24, r28
     8b0:	9a df       	rcall	.-204    	; 0x7e6 <_ZN14HardwareSerial17_tx_udr_empty_irqEv>
  }
  tx_buffer_index_t i = (_tx_buffer_head + 1) % SERIAL_TX_BUFFER_SIZE;
	
  // If the output buffer is full, there's nothing for it other than to 
  // wait for the interrupt handler to empty it a bit
  while (i == _tx_buffer_tail) {
     8b2:	9c 8d       	ldd	r25, Y+28	; 0x1c
     8b4:	09 17       	cp	r16, r25
     8b6:	99 f3       	breq	.-26     	; 0x89e <_ZN14HardwareSerial5writeEh+0x22>
    } else {
      // nop, the interrupt handler will free up space for us
    }
  }

  _tx_buffer[_tx_buffer_head] = c;
     8b8:	8b 8d       	ldd	r24, Y+27	; 0x1b
     8ba:	fe 01       	movw	r30, r28
     8bc:	e8 0f       	add	r30, r24
     8be:	f1 1d       	adc	r31, r1
     8c0:	e3 5a       	subi	r30, 0xA3	; 163
     8c2:	ff 4f       	sbci	r31, 0xFF	; 255
     8c4:	10 83       	st	Z, r17
  _tx_buffer_head = i;
     8c6:	0b 8f       	std	Y+27, r16	; 0x1b
	
  sbi(*_ucsrb, UDRIE0);
     8c8:	ea 89       	ldd	r30, Y+18	; 0x12
     8ca:	fb 89       	ldd	r31, Y+19	; 0x13
     8cc:	80 81       	ld	r24, Z
     8ce:	80 62       	ori	r24, 0x20	; 32
     8d0:	80 83       	st	Z, r24
  
  return 1;
     8d2:	1b c0       	rjmp	.+54     	; 0x90a <_ZN14HardwareSerial5writeEh+0x8e>
  if (_tx_buffer_head == _tx_buffer_tail && bit_is_set(*_ucsra, UDRE0)) {
    *_udr = c;
    sbi(*_ucsra, TXC0);
    return 1;
  }
  tx_buffer_index_t i = (_tx_buffer_head + 1) % SERIAL_TX_BUFFER_SIZE;
     8d4:	23 8d       	ldd	r18, Z+27	; 0x1b
     8d6:	30 e0       	ldi	r19, 0x00	; 0
     8d8:	2f 5f       	subi	r18, 0xFF	; 255
     8da:	3f 4f       	sbci	r19, 0xFF	; 255
     8dc:	2f 73       	andi	r18, 0x3F	; 63
     8de:	30 78       	andi	r19, 0x80	; 128
     8e0:	33 23       	and	r19, r19
     8e2:	34 f4       	brge	.+12     	; 0x8f0 <_ZN14HardwareSerial5writeEh+0x74>
     8e4:	21 50       	subi	r18, 0x01	; 1
     8e6:	31 09       	sbc	r19, r1
     8e8:	20 6c       	ori	r18, 0xC0	; 192
     8ea:	3f 6f       	ori	r19, 0xFF	; 255
     8ec:	2f 5f       	subi	r18, 0xFF	; 255
     8ee:	3f 4f       	sbci	r19, 0xFF	; 255
     8f0:	16 2f       	mov	r17, r22
     8f2:	ef 01       	movw	r28, r30
     8f4:	02 2f       	mov	r16, r18
	
  // If the output buffer is full, there's nothing for it other than to 
  // wait for the interrupt handler to empty it a bit
  while (i == _tx_buffer_tail) {
     8f6:	dd cf       	rjmp	.-70     	; 0x8b2 <_ZN14HardwareSerial5writeEh+0x36>
  // If the buffer and the data register is empty, just write the byte
  // to the data register and be done. This shortcut helps
  // significantly improve the effective datarate at high (>
  // 500kbit/s) bitrates, where interrupt overhead becomes a slowdown.
  if (_tx_buffer_head == _tx_buffer_tail && bit_is_set(*_ucsra, UDRE0)) {
    *_udr = c;
     8f8:	a6 89       	ldd	r26, Z+22	; 0x16
     8fa:	b7 89       	ldd	r27, Z+23	; 0x17
     8fc:	6c 93       	st	X, r22
    sbi(*_ucsra, TXC0);
     8fe:	00 88       	ldd	r0, Z+16	; 0x10
     900:	f1 89       	ldd	r31, Z+17	; 0x11
     902:	e0 2d       	mov	r30, r0
     904:	80 81       	ld	r24, Z
     906:	80 64       	ori	r24, 0x40	; 64
     908:	80 83       	st	Z, r24
  _tx_buffer_head = i;
	
  sbi(*_ucsrb, UDRIE0);
  
  return 1;
}
     90a:	81 e0       	ldi	r24, 0x01	; 1
     90c:	90 e0       	ldi	r25, 0x00	; 0
     90e:	df 91       	pop	r29
     910:	cf 91       	pop	r28
     912:	1f 91       	pop	r17
     914:	0f 91       	pop	r16
     916:	08 95       	ret

00000918 <__vector_11>:
#elif defined(USART_RXC_vect)
  ISR(USART_RXC_vect) // ATmega8
#else
  #error "Don't know what the Data Received vector is called for Serial"
#endif
  {
     918:	1f 92       	push	r1
     91a:	0f 92       	push	r0
     91c:	0f b6       	in	r0, 0x3f	; 63
     91e:	0f 92       	push	r0
     920:	11 24       	eor	r1, r1
     922:	2f 93       	push	r18
     924:	8f 93       	push	r24
     926:	9f 93       	push	r25
     928:	af 93       	push	r26
     92a:	bf 93       	push	r27
     92c:	ef 93       	push	r30
     92e:	ff 93       	push	r31

// Actual interrupt handlers //////////////////////////////////////////////////////////////

void HardwareSerial::_rx_complete_irq(void)
{
  if (bit_is_clear(*_ucsra, UPE0)) {
     930:	e0 91 3a 01 	lds	r30, 0x013A
     934:	f0 91 3b 01 	lds	r31, 0x013B
     938:	80 81       	ld	r24, Z
     93a:	82 fd       	sbrc	r24, 2
     93c:	14 c0       	rjmp	.+40     	; 0x966 <__vector_11+0x4e>
    // No Parity error, read byte and store it in the buffer if there is
    // room
    unsigned char c = *_udr;
     93e:	ea e2       	ldi	r30, 0x2A	; 42
     940:	f1 e0       	ldi	r31, 0x01	; 1
     942:	a6 89       	ldd	r26, Z+22	; 0x16
     944:	b7 89       	ldd	r27, Z+23	; 0x17
     946:	2c 91       	ld	r18, X
    rx_buffer_index_t i = (unsigned int)(_rx_buffer_head + 1) % SERIAL_RX_BUFFER_SIZE;
     948:	81 8d       	ldd	r24, Z+25	; 0x19
     94a:	8f 5f       	subi	r24, 0xFF	; 255
     94c:	8f 73       	andi	r24, 0x3F	; 63

    // if we should be storing the received character into the location
    // just before the tail (meaning that the head would advance to the
    // current location of the tail), we're about to overflow the buffer
    // and so we don't write the character or advance the head.
    if (i != _rx_buffer_tail) {
     94e:	92 8d       	ldd	r25, Z+26	; 0x1a
     950:	89 17       	cp	r24, r25
     952:	71 f0       	breq	.+28     	; 0x970 <__vector_11+0x58>
      _rx_buffer[_rx_buffer_head] = c;
     954:	df 01       	movw	r26, r30
     956:	e1 8d       	ldd	r30, Z+25	; 0x19
     958:	f0 e0       	ldi	r31, 0x00	; 0
     95a:	e6 5d       	subi	r30, 0xD6	; 214
     95c:	fe 4f       	sbci	r31, 0xFE	; 254
     95e:	25 8f       	std	Z+29, r18	; 0x1d
      _rx_buffer_head = i;
     960:	59 96       	adiw	r26, 0x19	; 25
     962:	8c 93       	st	X, r24
     964:	05 c0       	rjmp	.+10     	; 0x970 <__vector_11+0x58>
    }
  } else {
    // Parity error, read byte but discard it
    *_udr;
     966:	e0 91 40 01 	lds	r30, 0x0140
     96a:	f0 91 41 01 	lds	r31, 0x0141
     96e:	80 81       	ld	r24, Z
    Serial._rx_complete_irq();
  }
     970:	ff 91       	pop	r31
     972:	ef 91       	pop	r30
     974:	bf 91       	pop	r27
     976:	af 91       	pop	r26
     978:	9f 91       	pop	r25
     97a:	8f 91       	pop	r24
     97c:	2f 91       	pop	r18
     97e:	0f 90       	pop	r0
     980:	0f be       	out	0x3f, r0	; 63
     982:	0f 90       	pop	r0
     984:	1f 90       	pop	r1
     986:	18 95       	reti

00000988 <__vector_12>:
#elif defined(USART_UDRE_vect)
ISR(USART_UDRE_vect)
#else
  #error "Don't know what the Data Register Empty vector is called for Serial"
#endif
{
     988:	1f 92       	push	r1
     98a:	0f 92       	push	r0
     98c:	0f b6       	in	r0, 0x3f	; 63
     98e:	0f 92       	push	r0
     990:	11 24       	eor	r1, r1
     992:	2f 93       	push	r18
     994:	3f 93       	push	r19
     996:	4f 93       	push	r20
     998:	5f 93       	push	r21
     99a:	6f 93       	push	r22
     99c:	7f 93       	push	r23
     99e:	8f 93       	push	r24
     9a0:	9f 93       	push	r25
     9a2:	af 93       	push	r26
     9a4:	bf 93       	push	r27
     9a6:	ef 93       	push	r30
     9a8:	ff 93       	push	r31
  Serial._tx_udr_empty_irq();
     9aa:	8a e2       	ldi	r24, 0x2A	; 42
     9ac:	91 e0       	ldi	r25, 0x01	; 1
     9ae:	1b df       	rcall	.-458    	; 0x7e6 <_ZN14HardwareSerial17_tx_udr_empty_irqEv>
}
     9b0:	ff 91       	pop	r31
     9b2:	ef 91       	pop	r30
     9b4:	bf 91       	pop	r27
     9b6:	af 91       	pop	r26
     9b8:	9f 91       	pop	r25
     9ba:	8f 91       	pop	r24
     9bc:	7f 91       	pop	r23
     9be:	6f 91       	pop	r22
     9c0:	5f 91       	pop	r21
     9c2:	4f 91       	pop	r20
     9c4:	3f 91       	pop	r19
     9c6:	2f 91       	pop	r18
     9c8:	0f 90       	pop	r0
     9ca:	0f be       	out	0x3f, r0	; 63
     9cc:	0f 90       	pop	r0
     9ce:	1f 90       	pop	r1
     9d0:	18 95       	reti

000009d2 <_Z17Serial0_availablev>:
#endif

// Function that can be weakly referenced by serialEventRun to prevent
// pulling in this file if it's not otherwise used.
bool Serial0_available() {
  return Serial.available();
     9d2:	8a e2       	ldi	r24, 0x2A	; 42
     9d4:	91 e0       	ldi	r25, 0x01	; 1
     9d6:	cd de       	rcall	.-614    	; 0x772 <_ZN14HardwareSerial9availableEv>
     9d8:	21 e0       	ldi	r18, 0x01	; 1
     9da:	89 2b       	or	r24, r25
     9dc:	09 f4       	brne	.+2      	; 0x9e0 <_Z17Serial0_availablev+0xe>
     9de:	20 e0       	ldi	r18, 0x00	; 0
}
     9e0:	82 2f       	mov	r24, r18
     9e2:	08 95       	ret

000009e4 <_GLOBAL__sub_I___vector_11>:
    size_t printNumber(unsigned long, uint8_t);
    size_t printFloat(double, uint8_t);
  protected:
    void setWriteError(int err = 1) { write_error = err; }
  public:
    Print() : write_error(0) {}
     9e4:	ea e2       	ldi	r30, 0x2A	; 42
     9e6:	f1 e0       	ldi	r31, 0x01	; 1
     9e8:	13 82       	std	Z+3, r1	; 0x03
     9ea:	12 82       	std	Z+2, r1	; 0x02
    virtual int available() = 0;
    virtual int read() = 0;
    virtual int peek() = 0;
    virtual void flush() = 0;

    Stream() {_timeout=1000;}
     9ec:	88 ee       	ldi	r24, 0xE8	; 232
     9ee:	93 e0       	ldi	r25, 0x03	; 3
     9f0:	a0 e0       	ldi	r26, 0x00	; 0
     9f2:	b0 e0       	ldi	r27, 0x00	; 0
     9f4:	84 83       	std	Z+4, r24	; 0x04
     9f6:	95 83       	std	Z+5, r25	; 0x05
     9f8:	a6 83       	std	Z+6, r26	; 0x06
     9fa:	b7 83       	std	Z+7, r27	; 0x07
  volatile uint8_t *ucsrc, volatile uint8_t *udr) :
    _ubrrh(ubrrh), _ubrrl(ubrrl),
    _ucsra(ucsra), _ucsrb(ucsrb), _ucsrc(ucsrc),
    _udr(udr),
    _rx_buffer_head(0), _rx_buffer_tail(0),
    _tx_buffer_head(0), _tx_buffer_tail(0)
     9fc:	82 ee       	ldi	r24, 0xE2	; 226
     9fe:	90 e0       	ldi	r25, 0x00	; 0
     a00:	91 83       	std	Z+1, r25	; 0x01
     a02:	80 83       	st	Z, r24
     a04:	80 e4       	ldi	r24, 0x40	; 64
     a06:	90 e0       	ldi	r25, 0x00	; 0
     a08:	95 87       	std	Z+13, r25	; 0x0d
     a0a:	84 87       	std	Z+12, r24	; 0x0c
     a0c:	29 e2       	ldi	r18, 0x29	; 41
     a0e:	30 e0       	ldi	r19, 0x00	; 0
     a10:	37 87       	std	Z+15, r19	; 0x0f
     a12:	26 87       	std	Z+14, r18	; 0x0e
     a14:	2b e2       	ldi	r18, 0x2B	; 43
     a16:	30 e0       	ldi	r19, 0x00	; 0
     a18:	31 8b       	std	Z+17, r19	; 0x11
     a1a:	20 8b       	std	Z+16, r18	; 0x10
     a1c:	2a e2       	ldi	r18, 0x2A	; 42
     a1e:	30 e0       	ldi	r19, 0x00	; 0
     a20:	33 8b       	std	Z+19, r19	; 0x13
     a22:	22 8b       	std	Z+18, r18	; 0x12
     a24:	95 8b       	std	Z+21, r25	; 0x15
     a26:	84 8b       	std	Z+20, r24	; 0x14
     a28:	8c e2       	ldi	r24, 0x2C	; 44
     a2a:	90 e0       	ldi	r25, 0x00	; 0
     a2c:	97 8b       	std	Z+23, r25	; 0x17
     a2e:	86 8b       	std	Z+22, r24	; 0x16
     a30:	11 8e       	std	Z+25, r1	; 0x19
     a32:	12 8e       	std	Z+26, r1	; 0x1a
     a34:	13 8e       	std	Z+27, r1	; 0x1b
     a36:	14 8e       	std	Z+28, r1	; 0x1c
     a38:	08 95       	ret

00000a3a <_ZNK9IPAddress7printToER5Print>:
{
    return memcmp(addr, _address.bytes, sizeof(_address.bytes)) == 0;
}

size_t IPAddress::printTo(Print& p) const
{
     a3a:	8f 92       	push	r8
     a3c:	9f 92       	push	r9
     a3e:	af 92       	push	r10
     a40:	bf 92       	push	r11
     a42:	cf 92       	push	r12
     a44:	df 92       	push	r13
     a46:	ef 92       	push	r14
     a48:	ff 92       	push	r15
     a4a:	0f 93       	push	r16
     a4c:	1f 93       	push	r17
     a4e:	cf 93       	push	r28
     a50:	df 93       	push	r29
     a52:	5c 01       	movw	r10, r24
     a54:	7b 01       	movw	r14, r22
     a56:	4c 01       	movw	r8, r24
     a58:	82 e0       	ldi	r24, 0x02	; 2
     a5a:	88 0e       	add	r8, r24
     a5c:	91 1c       	adc	r9, r1
     a5e:	65 01       	movw	r12, r10
     a60:	e5 e0       	ldi	r30, 0x05	; 5
     a62:	ce 0e       	add	r12, r30
     a64:	d1 1c       	adc	r13, r1
    size_t n = 0;
     a66:	00 e0       	ldi	r16, 0x00	; 0
     a68:	10 e0       	ldi	r17, 0x00	; 0
    for (int i =0; i < 3; i++)
    {
        n += p.print(_address.bytes[i], DEC);
     a6a:	f4 01       	movw	r30, r8
     a6c:	61 91       	ld	r22, Z+
     a6e:	4f 01       	movw	r8, r30
     a70:	4a e0       	ldi	r20, 0x0A	; 10
     a72:	50 e0       	ldi	r21, 0x00	; 0
     a74:	c7 01       	movw	r24, r14
     a76:	eb d0       	rcall	.+470    	; 0xc4e <_ZN5Print5printEhi>
     a78:	ec 01       	movw	r28, r24
        n += p.print('.');
     a7a:	6e e2       	ldi	r22, 0x2E	; 46
     a7c:	c7 01       	movw	r24, r14
     a7e:	5f d0       	rcall	.+190    	; 0xb3e <_ZN5Print5printEc>
     a80:	8c 0f       	add	r24, r28
     a82:	9d 1f       	adc	r25, r29
     a84:	08 0f       	add	r16, r24
     a86:	19 1f       	adc	r17, r25
}

size_t IPAddress::printTo(Print& p) const
{
    size_t n = 0;
    for (int i =0; i < 3; i++)
     a88:	8c 14       	cp	r8, r12
     a8a:	9d 04       	cpc	r9, r13
     a8c:	71 f7       	brne	.-36     	; 0xa6a <_ZNK9IPAddress7printToER5Print+0x30>
    {
        n += p.print(_address.bytes[i], DEC);
        n += p.print('.');
    }
    n += p.print(_address.bytes[3], DEC);
     a8e:	4a e0       	ldi	r20, 0x0A	; 10
     a90:	50 e0       	ldi	r21, 0x00	; 0
     a92:	f5 01       	movw	r30, r10
     a94:	65 81       	ldd	r22, Z+5	; 0x05
     a96:	c7 01       	movw	r24, r14
     a98:	da d0       	rcall	.+436    	; 0xc4e <_ZN5Print5printEhi>
    return n;
}
     a9a:	80 0f       	add	r24, r16
     a9c:	91 1f       	adc	r25, r17
     a9e:	df 91       	pop	r29
     aa0:	cf 91       	pop	r28
     aa2:	1f 91       	pop	r17
     aa4:	0f 91       	pop	r16
     aa6:	ff 90       	pop	r15
     aa8:	ef 90       	pop	r14
     aaa:	df 90       	pop	r13
     aac:	cf 90       	pop	r12
     aae:	bf 90       	pop	r11
     ab0:	af 90       	pop	r10
     ab2:	9f 90       	pop	r9
     ab4:	8f 90       	pop	r8
     ab6:	08 95       	ret

00000ab8 <_GLOBAL__sub_I__ZN9IPAddressC2Ev>:
IPAddress::IPAddress()
{
    _address.dword = 0;
}

IPAddress::IPAddress(uint8_t first_octet, uint8_t second_octet, uint8_t third_octet, uint8_t fourth_octet)
     ab8:	e7 ec       	ldi	r30, 0xC7	; 199
     aba:	f1 e0       	ldi	r31, 0x01	; 1
     abc:	82 ef       	ldi	r24, 0xF2	; 242
     abe:	90 e0       	ldi	r25, 0x00	; 0
     ac0:	91 83       	std	Z+1, r25	; 0x01
     ac2:	80 83       	st	Z, r24
{
    _address.bytes[0] = first_octet;
     ac4:	12 82       	std	Z+2, r1	; 0x02
    _address.bytes[1] = second_octet;
     ac6:	13 82       	std	Z+3, r1	; 0x03
    _address.bytes[2] = third_octet;
     ac8:	14 82       	std	Z+4, r1	; 0x04
    _address.bytes[3] = fourth_octet;
     aca:	15 82       	std	Z+5, r1	; 0x05
     acc:	08 95       	ret

00000ace <initVariant>:
int atexit(void (* /*func*/ )()) { return 0; }

// Weak empty variant initialization function.
// May be redefined by variant files.
void initVariant() __attribute__((weak));
void initVariant() { }
     ace:	08 95       	ret

00000ad0 <main>:

int main(void)
{
	init();
     ad0:	2a d2       	rcall	.+1108   	; 0xf26 <init>

	initVariant();
     ad2:	fd df       	rcall	.-6      	; 0xace <initVariant>

#if defined(USBCON)
	USBDevice.attach();
#endif
	
	setup();
     ad4:	13 de       	rcall	.-986    	; 0x6fc <setup>
    
	for (;;) {
		loop();
		if (serialEventRun) serialEventRun();
     ad6:	c7 ee       	ldi	r28, 0xE7	; 231
     ad8:	d3 e0       	ldi	r29, 0x03	; 3
#endif
	
	setup();
    
	for (;;) {
		loop();
     ada:	36 de       	rcall	.-916    	; 0x748 <loop>
		if (serialEventRun) serialEventRun();
     adc:	20 97       	sbiw	r28, 0x00	; 0
     ade:	e9 f3       	breq	.-6      	; 0xada <main+0xa>
     ae0:	76 de       	rcall	.-788    	; 0x7ce <_Z14serialEventRunv>
     ae2:	fb cf       	rjmp	.-10     	; 0xada <main+0xa>

00000ae4 <_ZN5Print5writeEPKhj>:

// Public Methods //////////////////////////////////////////////////////////////

/* default implementation: may be overridden */
size_t Print::write(const uint8_t *buffer, size_t size)
{
     ae4:	cf 92       	push	r12
     ae6:	df 92       	push	r13
     ae8:	ef 92       	push	r14
     aea:	ff 92       	push	r15
     aec:	0f 93       	push	r16
     aee:	1f 93       	push	r17
     af0:	cf 93       	push	r28
     af2:	df 93       	push	r29
  size_t n = 0;
  while (size--) {
     af4:	41 15       	cp	r20, r1
     af6:	51 05       	cpc	r21, r1
     af8:	b1 f0       	breq	.+44     	; 0xb26 <_ZN5Print5writeEPKhj+0x42>
     afa:	8c 01       	movw	r16, r24
     afc:	e6 2e       	mov	r14, r22
     afe:	f7 2e       	mov	r15, r23
     b00:	ea 01       	movw	r28, r20
     b02:	c1 2c       	mov	r12, r1
     b04:	d1 2c       	mov	r13, r1
    n += write(*buffer++);
     b06:	d7 01       	movw	r26, r14
     b08:	6d 91       	ld	r22, X+
     b0a:	7d 01       	movw	r14, r26
     b0c:	d8 01       	movw	r26, r16
     b0e:	ed 91       	ld	r30, X+
     b10:	fc 91       	ld	r31, X
     b12:	01 90       	ld	r0, Z+
     b14:	f0 81       	ld	r31, Z
     b16:	e0 2d       	mov	r30, r0
     b18:	c8 01       	movw	r24, r16
     b1a:	09 95       	icall
     b1c:	c8 0e       	add	r12, r24
     b1e:	d9 1e       	adc	r13, r25
     b20:	21 97       	sbiw	r28, 0x01	; 1

/* default implementation: may be overridden */
size_t Print::write(const uint8_t *buffer, size_t size)
{
  size_t n = 0;
  while (size--) {
     b22:	89 f7       	brne	.-30     	; 0xb06 <_ZN5Print5writeEPKhj+0x22>
     b24:	02 c0       	rjmp	.+4      	; 0xb2a <_ZN5Print5writeEPKhj+0x46>
// Public Methods //////////////////////////////////////////////////////////////

/* default implementation: may be overridden */
size_t Print::write(const uint8_t *buffer, size_t size)
{
  size_t n = 0;
     b26:	c1 2c       	mov	r12, r1
     b28:	d1 2c       	mov	r13, r1
  while (size--) {
    n += write(*buffer++);
  }
  return n;
}
     b2a:	c6 01       	movw	r24, r12
     b2c:	df 91       	pop	r29
     b2e:	cf 91       	pop	r28
     b30:	1f 91       	pop	r17
     b32:	0f 91       	pop	r16
     b34:	ff 90       	pop	r15
     b36:	ef 90       	pop	r14
     b38:	df 90       	pop	r13
     b3a:	cf 90       	pop	r12
     b3c:	08 95       	ret

00000b3e <_ZN5Print5printEc>:
  return write(str);
}

size_t Print::print(char c)
{
  return write(c);
     b3e:	dc 01       	movw	r26, r24
     b40:	ed 91       	ld	r30, X+
     b42:	fc 91       	ld	r31, X
     b44:	01 90       	ld	r0, Z+
     b46:	f0 81       	ld	r31, Z
     b48:	e0 2d       	mov	r30, r0
     b4a:	09 95       	icall
}
     b4c:	08 95       	ret

00000b4e <_ZN5Print11printNumberEmh>:
  return n;
}

// Private Methods /////////////////////////////////////////////////////////////

size_t Print::printNumber(unsigned long n, uint8_t base) {
     b4e:	4f 92       	push	r4
     b50:	5f 92       	push	r5
     b52:	6f 92       	push	r6
     b54:	7f 92       	push	r7
     b56:	9f 92       	push	r9
     b58:	af 92       	push	r10
     b5a:	bf 92       	push	r11
     b5c:	cf 92       	push	r12
     b5e:	df 92       	push	r13
     b60:	ef 92       	push	r14
     b62:	ff 92       	push	r15
     b64:	0f 93       	push	r16
     b66:	1f 93       	push	r17
     b68:	cf 93       	push	r28
     b6a:	df 93       	push	r29
     b6c:	cd b7       	in	r28, 0x3d	; 61
     b6e:	de b7       	in	r29, 0x3e	; 62
     b70:	a1 97       	sbiw	r28, 0x21	; 33
     b72:	0f b6       	in	r0, 0x3f	; 63
     b74:	f8 94       	cli
     b76:	de bf       	out	0x3e, r29	; 62
     b78:	0f be       	out	0x3f, r0	; 63
     b7a:	cd bf       	out	0x3d, r28	; 61
     b7c:	5c 01       	movw	r10, r24
     b7e:	6a 01       	movw	r12, r20
     b80:	7b 01       	movw	r14, r22
     b82:	92 2e       	mov	r9, r18
  char buf[8 * sizeof(long) + 1]; // Assumes 8-bit chars plus zero byte.
  char *str = &buf[sizeof(buf) - 1];

  *str = '\0';
     b84:	19 a2       	std	Y+33, r1	; 0x21

  // prevent crash if called with base == 1
  if (base < 2) base = 10;
     b86:	81 e0       	ldi	r24, 0x01	; 1
     b88:	82 17       	cp	r24, r18
     b8a:	20 f0       	brcs	.+8      	; 0xb94 <_ZN5Print11printNumberEmh+0x46>
     b8c:	0f 2e       	mov	r0, r31
     b8e:	fa e0       	ldi	r31, 0x0A	; 10
     b90:	9f 2e       	mov	r9, r31
     b92:	f0 2d       	mov	r31, r0
     b94:	8e 01       	movw	r16, r28
     b96:	0f 5d       	subi	r16, 0xDF	; 223
     b98:	1f 4f       	sbci	r17, 0xFF	; 255

  do {
    unsigned long m = n;
    n /= base;
     b9a:	49 2c       	mov	r4, r9
     b9c:	51 2c       	mov	r5, r1
     b9e:	61 2c       	mov	r6, r1
     ba0:	71 2c       	mov	r7, r1
     ba2:	c7 01       	movw	r24, r14
     ba4:	b6 01       	movw	r22, r12
     ba6:	a3 01       	movw	r20, r6
     ba8:	92 01       	movw	r18, r4
     baa:	fb d3       	rcall	.+2038   	; 0x13a2 <__udivmodsi4>
    char c = m - base * n;
     bac:	8c 2d       	mov	r24, r12
     bae:	92 9e       	mul	r9, r18
     bb0:	80 19       	sub	r24, r0
     bb2:	11 24       	eor	r1, r1
    *--str = c < 10 ? c + '0' : c + 'A' - 10;
     bb4:	01 50       	subi	r16, 0x01	; 1
     bb6:	11 09       	sbc	r17, r1
     bb8:	8a 30       	cpi	r24, 0x0A	; 10
     bba:	10 f4       	brcc	.+4      	; 0xbc0 <_ZN5Print11printNumberEmh+0x72>
     bbc:	80 5d       	subi	r24, 0xD0	; 208
     bbe:	01 c0       	rjmp	.+2      	; 0xbc2 <_ZN5Print11printNumberEmh+0x74>
     bc0:	89 5c       	subi	r24, 0xC9	; 201
     bc2:	d8 01       	movw	r26, r16
     bc4:	8c 93       	st	X, r24
  // prevent crash if called with base == 1
  if (base < 2) base = 10;

  do {
    unsigned long m = n;
    n /= base;
     bc6:	c2 2e       	mov	r12, r18
     bc8:	d3 2e       	mov	r13, r19
     bca:	e4 2e       	mov	r14, r20
     bcc:	f5 2e       	mov	r15, r21
  *str = '\0';

  // prevent crash if called with base == 1
  if (base < 2) base = 10;

  do {
     bce:	c1 14       	cp	r12, r1
     bd0:	d1 04       	cpc	r13, r1
     bd2:	e1 04       	cpc	r14, r1
     bd4:	f1 04       	cpc	r15, r1
     bd6:	29 f7       	brne	.-54     	; 0xba2 <_ZN5Print11printNumberEmh+0x54>
    int getWriteError() { return write_error; }
    void clearWriteError() { setWriteError(0); }
  
    virtual size_t write(uint8_t) = 0;
    size_t write(const char *str) {
      if (str == NULL) return 0;
     bd8:	01 15       	cp	r16, r1
     bda:	11 05       	cpc	r17, r1
     bdc:	91 f0       	breq	.+36     	; 0xc02 <_ZN5Print11printNumberEmh+0xb4>
      return write((const uint8_t *)str, strlen(str));
     bde:	f8 01       	movw	r30, r16
     be0:	01 90       	ld	r0, Z+
     be2:	00 20       	and	r0, r0
     be4:	e9 f7       	brne	.-6      	; 0xbe0 <_ZN5Print11printNumberEmh+0x92>
     be6:	31 97       	sbiw	r30, 0x01	; 1
     be8:	af 01       	movw	r20, r30
     bea:	40 1b       	sub	r20, r16
     bec:	51 0b       	sbc	r21, r17
     bee:	d5 01       	movw	r26, r10
     bf0:	ed 91       	ld	r30, X+
     bf2:	fc 91       	ld	r31, X
     bf4:	02 80       	ldd	r0, Z+2	; 0x02
     bf6:	f3 81       	ldd	r31, Z+3	; 0x03
     bf8:	e0 2d       	mov	r30, r0
     bfa:	b8 01       	movw	r22, r16
     bfc:	c5 01       	movw	r24, r10
     bfe:	09 95       	icall
     c00:	02 c0       	rjmp	.+4      	; 0xc06 <_ZN5Print11printNumberEmh+0xb8>
    int getWriteError() { return write_error; }
    void clearWriteError() { setWriteError(0); }
  
    virtual size_t write(uint8_t) = 0;
    size_t write(const char *str) {
      if (str == NULL) return 0;
     c02:	80 e0       	ldi	r24, 0x00	; 0
     c04:	90 e0       	ldi	r25, 0x00	; 0
    char c = m - base * n;
    *--str = c < 10 ? c + '0' : c + 'A' - 10;
  } while(n);

  return write(str);
}
     c06:	a1 96       	adiw	r28, 0x21	; 33
     c08:	0f b6       	in	r0, 0x3f	; 63
     c0a:	f8 94       	cli
     c0c:	de bf       	out	0x3e, r29	; 62
     c0e:	0f be       	out	0x3f, r0	; 63
     c10:	cd bf       	out	0x3d, r28	; 61
     c12:	df 91       	pop	r29
     c14:	cf 91       	pop	r28
     c16:	1f 91       	pop	r17
     c18:	0f 91       	pop	r16
     c1a:	ff 90       	pop	r15
     c1c:	ef 90       	pop	r14
     c1e:	df 90       	pop	r13
     c20:	cf 90       	pop	r12
     c22:	bf 90       	pop	r11
     c24:	af 90       	pop	r10
     c26:	9f 90       	pop	r9
     c28:	7f 90       	pop	r7
     c2a:	6f 90       	pop	r6
     c2c:	5f 90       	pop	r5
     c2e:	4f 90       	pop	r4
     c30:	08 95       	ret

00000c32 <_ZN5Print5printEmi>:
  }
}

size_t Print::print(unsigned long n, int base)
{
  if (base == 0) return write(n);
     c32:	21 15       	cp	r18, r1
     c34:	31 05       	cpc	r19, r1
     c36:	49 f4       	brne	.+18     	; 0xc4a <_ZN5Print5printEmi+0x18>
     c38:	dc 01       	movw	r26, r24
     c3a:	ed 91       	ld	r30, X+
     c3c:	fc 91       	ld	r31, X
     c3e:	01 90       	ld	r0, Z+
     c40:	f0 81       	ld	r31, Z
     c42:	e0 2d       	mov	r30, r0
     c44:	64 2f       	mov	r22, r20
     c46:	09 95       	icall
     c48:	08 95       	ret
  else return printNumber(n, base);
     c4a:	81 df       	rcall	.-254    	; 0xb4e <_ZN5Print11printNumberEmh>
}
     c4c:	08 95       	ret

00000c4e <_ZN5Print5printEhi>:
{
  return write(c);
}

size_t Print::print(unsigned char b, int base)
{
     c4e:	9a 01       	movw	r18, r20
  return print((unsigned long) b, base);
     c50:	46 2f       	mov	r20, r22
     c52:	50 e0       	ldi	r21, 0x00	; 0
     c54:	60 e0       	ldi	r22, 0x00	; 0
     c56:	70 e0       	ldi	r23, 0x00	; 0
     c58:	ec df       	rcall	.-40     	; 0xc32 <_ZN5Print5printEmi>
}
     c5a:	08 95       	ret

00000c5c <_Z12disableTimerh>:
// XXX: this function only works properly for timer 2 (the only one we use
// currently).  for the others, it should end the tone, but won't restore
// proper PWM functionality for the timer.
void disableTimer(uint8_t _timer)
{
  switch (_timer)
     c5c:	81 30       	cpi	r24, 0x01	; 1
     c5e:	31 f0       	breq	.+12     	; 0xc6c <_Z12disableTimerh+0x10>
     c60:	18 f0       	brcs	.+6      	; 0xc68 <_Z12disableTimerh+0xc>
     c62:	82 30       	cpi	r24, 0x02	; 2
     c64:	39 f0       	breq	.+14     	; 0xc74 <_Z12disableTimerh+0x18>
     c66:	08 95       	ret
  {
    case 0:
      #if defined(TIMSK0)
        TIMSK0 = 0;
      #elif defined(TIMSK)
        TIMSK = 0; // atmega32
     c68:	19 be       	out	0x39, r1	; 57
      #endif
      break;
     c6a:	08 95       	ret

#if defined(TIMSK1) && defined(OCIE1A)
    case 1:
      bitWrite(TIMSK1, OCIE1A, 0);
     c6c:	89 b7       	in	r24, 0x39	; 57
     c6e:	8f 7e       	andi	r24, 0xEF	; 239
     c70:	89 bf       	out	0x39, r24	; 57
      break;
     c72:	08 95       	ret
#endif

    case 2:
      #if defined(TIMSK2) && defined(OCIE2A)
        bitWrite(TIMSK2, OCIE2A, 0); // disable interrupt
     c74:	89 b7       	in	r24, 0x39	; 57
     c76:	8f 77       	andi	r24, 0x7F	; 127
     c78:	89 bf       	out	0x39, r24	; 57
      #endif
      #if defined(TCCR2A) && defined(WGM20)
        TCCR2A = (1 << WGM20);
     c7a:	80 e4       	ldi	r24, 0x40	; 64
     c7c:	85 bd       	out	0x25, r24	; 37
      #endif
      #if defined(TCCR2B) && defined(CS22)
        TCCR2B = (TCCR2B & 0b11111000) | (1 << CS22);
     c7e:	85 b5       	in	r24, 0x25	; 37
     c80:	88 7f       	andi	r24, 0xF8	; 248
     c82:	84 60       	ori	r24, 0x04	; 4
     c84:	85 bd       	out	0x25, r24	; 37
      #endif
      #if defined(OCR2A)
        OCR2A = 0;
     c86:	13 bc       	out	0x23, r1	; 35
     c88:	08 95       	ret

00000c8a <_Z6noToneh>:
  }
}


void noTone(uint8_t _pin)
{
     c8a:	cf 93       	push	r28
     c8c:	c8 2f       	mov	r28, r24
  int8_t _timer = -1;
  
  for (int i = 0; i < AVAILABLE_TONE_PINS; i++) {
    if (tone_pins[i] == _pin) {
     c8e:	80 91 a7 00 	lds	r24, 0x00A7
     c92:	8c 13       	cpse	r24, r28
     c94:	08 c0       	rjmp	.+16     	; 0xca6 <_Z6noToneh+0x1c>
      _timer = pgm_read_byte(tone_pin_to_timer_PGM + i);
     c96:	e6 e2       	ldi	r30, 0x26	; 38
     c98:	f0 e0       	ldi	r31, 0x00	; 0
     c9a:	e4 91       	lpm	r30, Z
     c9c:	8e 2f       	mov	r24, r30
      tone_pins[i] = 255;
     c9e:	9f ef       	ldi	r25, 0xFF	; 255
     ca0:	90 93 a7 00 	sts	0x00A7, r25
     ca4:	01 c0       	rjmp	.+2      	; 0xca8 <_Z6noToneh+0x1e>
     ca6:	8f ef       	ldi	r24, 0xFF	; 255
    }
  }
  
  disableTimer(_timer);
     ca8:	d9 df       	rcall	.-78     	; 0xc5c <_Z12disableTimerh>

  digitalWrite(_pin, 0);
     caa:	60 e0       	ldi	r22, 0x00	; 0
     cac:	8c 2f       	mov	r24, r28
     cae:	97 d1       	rcall	.+814    	; 0xfde <digitalWrite>
}
     cb0:	cf 91       	pop	r28
     cb2:	08 95       	ret

00000cb4 <__vector_3>:
#endif


#ifdef USE_TIMER2
ISR(TIMER2_COMPA_vect)
{
     cb4:	1f 92       	push	r1
     cb6:	0f 92       	push	r0
     cb8:	0f b6       	in	r0, 0x3f	; 63
     cba:	0f 92       	push	r0
     cbc:	11 24       	eor	r1, r1
     cbe:	2f 93       	push	r18
     cc0:	3f 93       	push	r19
     cc2:	4f 93       	push	r20
     cc4:	5f 93       	push	r21
     cc6:	6f 93       	push	r22
     cc8:	7f 93       	push	r23
     cca:	8f 93       	push	r24
     ccc:	9f 93       	push	r25
     cce:	af 93       	push	r26
     cd0:	bf 93       	push	r27
     cd2:	ef 93       	push	r30
     cd4:	ff 93       	push	r31

  if (timer2_toggle_count != 0)
     cd6:	80 91 d0 01 	lds	r24, 0x01D0
     cda:	90 91 d1 01 	lds	r25, 0x01D1
     cde:	a0 91 d2 01 	lds	r26, 0x01D2
     ce2:	b0 91 d3 01 	lds	r27, 0x01D3
     ce6:	89 2b       	or	r24, r25
     ce8:	8a 2b       	or	r24, r26
     cea:	8b 2b       	or	r24, r27
     cec:	51 f1       	breq	.+84     	; 0xd42 <__vector_3+0x8e>
  {
    // toggle the pin
    *timer2_pin_port ^= timer2_pin_mask;
     cee:	80 91 cd 01 	lds	r24, 0x01CD
     cf2:	e0 91 ce 01 	lds	r30, 0x01CE
     cf6:	f0 91 cf 01 	lds	r31, 0x01CF
     cfa:	90 81       	ld	r25, Z
     cfc:	89 27       	eor	r24, r25
     cfe:	80 83       	st	Z, r24

    if (timer2_toggle_count > 0)
     d00:	80 91 d0 01 	lds	r24, 0x01D0
     d04:	90 91 d1 01 	lds	r25, 0x01D1
     d08:	a0 91 d2 01 	lds	r26, 0x01D2
     d0c:	b0 91 d3 01 	lds	r27, 0x01D3
     d10:	18 16       	cp	r1, r24
     d12:	19 06       	cpc	r1, r25
     d14:	1a 06       	cpc	r1, r26
     d16:	1b 06       	cpc	r1, r27
     d18:	bc f4       	brge	.+46     	; 0xd48 <__vector_3+0x94>
      timer2_toggle_count--;
     d1a:	80 91 d0 01 	lds	r24, 0x01D0
     d1e:	90 91 d1 01 	lds	r25, 0x01D1
     d22:	a0 91 d2 01 	lds	r26, 0x01D2
     d26:	b0 91 d3 01 	lds	r27, 0x01D3
     d2a:	01 97       	sbiw	r24, 0x01	; 1
     d2c:	a1 09       	sbc	r26, r1
     d2e:	b1 09       	sbc	r27, r1
     d30:	80 93 d0 01 	sts	0x01D0, r24
     d34:	90 93 d1 01 	sts	0x01D1, r25
     d38:	a0 93 d2 01 	sts	0x01D2, r26
     d3c:	b0 93 d3 01 	sts	0x01D3, r27
     d40:	03 c0       	rjmp	.+6      	; 0xd48 <__vector_3+0x94>
  else
  {
    // need to call noTone() so that the tone_pins[] entry is reset, so the
    // timer gets initialized next time we call tone().
    // XXX: this assumes timer 2 is always the first one used.
    noTone(tone_pins[0]);
     d42:	80 91 a7 00 	lds	r24, 0x00A7
     d46:	a1 df       	rcall	.-190    	; 0xc8a <_Z6noToneh>
//    disableTimer(2);
//    *timer2_pin_port &= ~(timer2_pin_mask);  // keep pin low after stop
  }
}
     d48:	ff 91       	pop	r31
     d4a:	ef 91       	pop	r30
     d4c:	bf 91       	pop	r27
     d4e:	af 91       	pop	r26
     d50:	9f 91       	pop	r25
     d52:	8f 91       	pop	r24
     d54:	7f 91       	pop	r23
     d56:	6f 91       	pop	r22
     d58:	5f 91       	pop	r21
     d5a:	4f 91       	pop	r20
     d5c:	3f 91       	pop	r19
     d5e:	2f 91       	pop	r18
     d60:	0f 90       	pop	r0
     d62:	0f be       	out	0x3f, r0	; 63
     d64:	0f 90       	pop	r0
     d66:	1f 90       	pop	r1
     d68:	18 95       	reti

00000d6a <attachInterrupt>:

static volatile voidFuncPtr intFunc[EXTERNAL_NUM_INTERRUPTS];
// volatile static voidFuncPtr twiIntFunc;

void attachInterrupt(uint8_t interruptNum, void (*userFunc)(void), int mode) {
  if(interruptNum < EXTERNAL_NUM_INTERRUPTS) {
     d6a:	82 30       	cpi	r24, 0x02	; 2
     d6c:	00 f5       	brcc	.+64     	; 0xdae <attachInterrupt+0x44>
    intFunc[interruptNum] = userFunc;
     d6e:	e8 2f       	mov	r30, r24
     d70:	f0 e0       	ldi	r31, 0x00	; 0
     d72:	ee 0f       	add	r30, r30
     d74:	ff 1f       	adc	r31, r31
     d76:	ec 52       	subi	r30, 0x2C	; 44
     d78:	fe 4f       	sbci	r31, 0xFE	; 254
     d7a:	71 83       	std	Z+1, r23	; 0x01
     d7c:	60 83       	st	Z, r22
    // to the configuration bits in the hardware register, so we simply shift
    // the mode into place.
      
    // Enable the interrupt.
      
    switch (interruptNum) {
     d7e:	88 23       	and	r24, r24
     d80:	19 f0       	breq	.+6      	; 0xd88 <attachInterrupt+0x1e>
     d82:	81 30       	cpi	r24, 0x01	; 1
     d84:	49 f0       	breq	.+18     	; 0xd98 <attachInterrupt+0x2e>
     d86:	08 95       	ret
    case 0:
    #if defined(EICRA) && defined(ISC00) && defined(EIMSK)
      EICRA = (EICRA & ~((1 << ISC00) | (1 << ISC01))) | (mode << ISC00);
      EIMSK |= (1 << INT0);
    #elif defined(MCUCR) && defined(ISC00) && defined(GICR)
      MCUCR = (MCUCR & ~((1 << ISC00) | (1 << ISC01))) | (mode << ISC00);
     d88:	85 b7       	in	r24, 0x35	; 53
     d8a:	8c 7f       	andi	r24, 0xFC	; 252
     d8c:	48 2b       	or	r20, r24
     d8e:	45 bf       	out	0x35, r20	; 53
      GICR |= (1 << INT0);
     d90:	8b b7       	in	r24, 0x3b	; 59
     d92:	80 64       	ori	r24, 0x40	; 64
     d94:	8b bf       	out	0x3b, r24	; 59
      MCUCR = (MCUCR & ~((1 << ISC00) | (1 << ISC01))) | (mode << ISC00);
      GIMSK |= (1 << INT0);
    #else
      #error attachInterrupt not finished for this CPU (case 0)
    #endif
      break;
     d96:	08 95       	ret
    case 1:
    #if defined(EICRA) && defined(ISC10) && defined(ISC11) && defined(EIMSK)
      EICRA = (EICRA & ~((1 << ISC10) | (1 << ISC11))) | (mode << ISC10);
      EIMSK |= (1 << INT1);
    #elif defined(MCUCR) && defined(ISC10) && defined(ISC11) && defined(GICR)
      MCUCR = (MCUCR & ~((1 << ISC10) | (1 << ISC11))) | (mode << ISC10);
     d98:	85 b7       	in	r24, 0x35	; 53
     d9a:	44 0f       	add	r20, r20
     d9c:	55 1f       	adc	r21, r21
     d9e:	44 0f       	add	r20, r20
     da0:	55 1f       	adc	r21, r21
     da2:	83 7f       	andi	r24, 0xF3	; 243
     da4:	48 2b       	or	r20, r24
     da6:	45 bf       	out	0x35, r20	; 53
      GICR |= (1 << INT1);
     da8:	8b b7       	in	r24, 0x3b	; 59
     daa:	80 68       	ori	r24, 0x80	; 128
     dac:	8b bf       	out	0x3b, r24	; 59
     dae:	08 95       	ret

00000db0 <detachInterrupt>:
    }
  }
}

void detachInterrupt(uint8_t interruptNum) {
  if(interruptNum < EXTERNAL_NUM_INTERRUPTS) {
     db0:	82 30       	cpi	r24, 0x02	; 2
     db2:	a0 f4       	brcc	.+40     	; 0xddc <detachInterrupt+0x2c>
    // Disable the interrupt.  (We can't assume that interruptNum is equal
    // to the number of the EIMSK bit to clear, as this isn't true on the 
    // ATmega8.  There, INT0 is 6 and INT1 is 7.)
    switch (interruptNum) {
     db4:	88 23       	and	r24, r24
     db6:	19 f0       	breq	.+6      	; 0xdbe <detachInterrupt+0xe>
     db8:	81 30       	cpi	r24, 0x01	; 1
     dba:	29 f0       	breq	.+10     	; 0xdc6 <detachInterrupt+0x16>
     dbc:	07 c0       	rjmp	.+14     	; 0xdcc <detachInterrupt+0x1c>
#else
    case 0:
    #if defined(EIMSK) && defined(INT0)
      EIMSK &= ~(1 << INT0);
    #elif defined(GICR) && defined(ISC00)
      GICR &= ~(1 << INT0); // atmega32
     dbe:	9b b7       	in	r25, 0x3b	; 59
     dc0:	9f 7b       	andi	r25, 0xBF	; 191
     dc2:	9b bf       	out	0x3b, r25	; 59
    #elif defined(GIMSK) && defined(INT0)
      GIMSK &= ~(1 << INT0);
    #else
      #error detachInterrupt not finished for this cpu
    #endif
      break;
     dc4:	03 c0       	rjmp	.+6      	; 0xdcc <detachInterrupt+0x1c>

    case 1:
    #if defined(EIMSK) && defined(INT1)
      EIMSK &= ~(1 << INT1);
    #elif defined(GICR) && defined(INT1)
      GICR &= ~(1 << INT1); // atmega32
     dc6:	9b b7       	in	r25, 0x3b	; 59
     dc8:	9f 77       	andi	r25, 0x7F	; 127
     dca:	9b bf       	out	0x3b, r25	; 59
    #endif
      break;       
#endif
    }
      
    intFunc[interruptNum] = 0;
     dcc:	e8 2f       	mov	r30, r24
     dce:	f0 e0       	ldi	r31, 0x00	; 0
     dd0:	ee 0f       	add	r30, r30
     dd2:	ff 1f       	adc	r31, r31
     dd4:	ec 52       	subi	r30, 0x2C	; 44
     dd6:	fe 4f       	sbci	r31, 0xFE	; 254
     dd8:	11 82       	std	Z+1, r1	; 0x01
     dda:	10 82       	st	Z, r1
     ddc:	08 95       	ret

00000dde <__vector_1>:
    intFunc[EXTERNAL_INT_7]();
}

#else

ISR(INT0_vect) {
     dde:	1f 92       	push	r1
     de0:	0f 92       	push	r0
     de2:	0f b6       	in	r0, 0x3f	; 63
     de4:	0f 92       	push	r0
     de6:	11 24       	eor	r1, r1
     de8:	2f 93       	push	r18
     dea:	3f 93       	push	r19
     dec:	4f 93       	push	r20
     dee:	5f 93       	push	r21
     df0:	6f 93       	push	r22
     df2:	7f 93       	push	r23
     df4:	8f 93       	push	r24
     df6:	9f 93       	push	r25
     df8:	af 93       	push	r26
     dfa:	bf 93       	push	r27
     dfc:	ef 93       	push	r30
     dfe:	ff 93       	push	r31
  if(intFunc[EXTERNAL_INT_0])
     e00:	80 91 d4 01 	lds	r24, 0x01D4
     e04:	90 91 d5 01 	lds	r25, 0x01D5
     e08:	89 2b       	or	r24, r25
     e0a:	29 f0       	breq	.+10     	; 0xe16 <__vector_1+0x38>
    intFunc[EXTERNAL_INT_0]();
     e0c:	e0 91 d4 01 	lds	r30, 0x01D4
     e10:	f0 91 d5 01 	lds	r31, 0x01D5
     e14:	09 95       	icall
}
     e16:	ff 91       	pop	r31
     e18:	ef 91       	pop	r30
     e1a:	bf 91       	pop	r27
     e1c:	af 91       	pop	r26
     e1e:	9f 91       	pop	r25
     e20:	8f 91       	pop	r24
     e22:	7f 91       	pop	r23
     e24:	6f 91       	pop	r22
     e26:	5f 91       	pop	r21
     e28:	4f 91       	pop	r20
     e2a:	3f 91       	pop	r19
     e2c:	2f 91       	pop	r18
     e2e:	0f 90       	pop	r0
     e30:	0f be       	out	0x3f, r0	; 63
     e32:	0f 90       	pop	r0
     e34:	1f 90       	pop	r1
     e36:	18 95       	reti

00000e38 <__vector_2>:

ISR(INT1_vect) {
     e38:	1f 92       	push	r1
     e3a:	0f 92       	push	r0
     e3c:	0f b6       	in	r0, 0x3f	; 63
     e3e:	0f 92       	push	r0
     e40:	11 24       	eor	r1, r1
     e42:	2f 93       	push	r18
     e44:	3f 93       	push	r19
     e46:	4f 93       	push	r20
     e48:	5f 93       	push	r21
     e4a:	6f 93       	push	r22
     e4c:	7f 93       	push	r23
     e4e:	8f 93       	push	r24
     e50:	9f 93       	push	r25
     e52:	af 93       	push	r26
     e54:	bf 93       	push	r27
     e56:	ef 93       	push	r30
     e58:	ff 93       	push	r31
  if(intFunc[EXTERNAL_INT_1])
     e5a:	80 91 d6 01 	lds	r24, 0x01D6
     e5e:	90 91 d7 01 	lds	r25, 0x01D7
     e62:	89 2b       	or	r24, r25
     e64:	29 f0       	breq	.+10     	; 0xe70 <__vector_2+0x38>
    intFunc[EXTERNAL_INT_1]();
     e66:	e0 91 d6 01 	lds	r30, 0x01D6
     e6a:	f0 91 d7 01 	lds	r31, 0x01D7
     e6e:	09 95       	icall
}
     e70:	ff 91       	pop	r31
     e72:	ef 91       	pop	r30
     e74:	bf 91       	pop	r27
     e76:	af 91       	pop	r26
     e78:	9f 91       	pop	r25
     e7a:	8f 91       	pop	r24
     e7c:	7f 91       	pop	r23
     e7e:	6f 91       	pop	r22
     e80:	5f 91       	pop	r21
     e82:	4f 91       	pop	r20
     e84:	3f 91       	pop	r19
     e86:	2f 91       	pop	r18
     e88:	0f 90       	pop	r0
     e8a:	0f be       	out	0x3f, r0	; 63
     e8c:	0f 90       	pop	r0
     e8e:	1f 90       	pop	r1
     e90:	18 95       	reti

00000e92 <__vector_9>:
#if defined(__AVR_ATtiny24__) || defined(__AVR_ATtiny44__) || defined(__AVR_ATtiny84__)|| defined(__AVR_ATtiny13__)
ISR(TIM0_OVF_vect)
#else
ISR(TIMER0_OVF_vect)
#endif
{
     e92:	1f 92       	push	r1
     e94:	0f 92       	push	r0
     e96:	0f b6       	in	r0, 0x3f	; 63
     e98:	0f 92       	push	r0
     e9a:	11 24       	eor	r1, r1
     e9c:	2f 93       	push	r18
     e9e:	3f 93       	push	r19
     ea0:	8f 93       	push	r24
     ea2:	9f 93       	push	r25
     ea4:	af 93       	push	r26
     ea6:	bf 93       	push	r27
	// copy these to local variables so they can be stored in registers
	// (volatile variables must be read from memory on every access)
	unsigned long m = timer0_millis;
     ea8:	80 91 d9 01 	lds	r24, 0x01D9
     eac:	90 91 da 01 	lds	r25, 0x01DA
     eb0:	a0 91 db 01 	lds	r26, 0x01DB
     eb4:	b0 91 dc 01 	lds	r27, 0x01DC
	unsigned char f = timer0_fract;
     eb8:	30 91 d8 01 	lds	r19, 0x01D8

	m += MILLIS_INC;
	f += FRACT_INC;
     ebc:	23 e0       	ldi	r18, 0x03	; 3
     ebe:	23 0f       	add	r18, r19
	if (f >= FRACT_MAX) {
     ec0:	2d 37       	cpi	r18, 0x7D	; 125
     ec2:	20 f4       	brcc	.+8      	; 0xecc <__vector_9+0x3a>
	// copy these to local variables so they can be stored in registers
	// (volatile variables must be read from memory on every access)
	unsigned long m = timer0_millis;
	unsigned char f = timer0_fract;

	m += MILLIS_INC;
     ec4:	01 96       	adiw	r24, 0x01	; 1
     ec6:	a1 1d       	adc	r26, r1
     ec8:	b1 1d       	adc	r27, r1
     eca:	05 c0       	rjmp	.+10     	; 0xed6 <__vector_9+0x44>
	f += FRACT_INC;
	if (f >= FRACT_MAX) {
		f -= FRACT_MAX;
     ecc:	26 e8       	ldi	r18, 0x86	; 134
     ece:	23 0f       	add	r18, r19
		m += 1;
     ed0:	02 96       	adiw	r24, 0x02	; 2
     ed2:	a1 1d       	adc	r26, r1
     ed4:	b1 1d       	adc	r27, r1
	}

	timer0_fract = f;
     ed6:	20 93 d8 01 	sts	0x01D8, r18
	timer0_millis = m;
     eda:	80 93 d9 01 	sts	0x01D9, r24
     ede:	90 93 da 01 	sts	0x01DA, r25
     ee2:	a0 93 db 01 	sts	0x01DB, r26
     ee6:	b0 93 dc 01 	sts	0x01DC, r27
	timer0_overflow_count++;
     eea:	80 91 dd 01 	lds	r24, 0x01DD
     eee:	90 91 de 01 	lds	r25, 0x01DE
     ef2:	a0 91 df 01 	lds	r26, 0x01DF
     ef6:	b0 91 e0 01 	lds	r27, 0x01E0
     efa:	01 96       	adiw	r24, 0x01	; 1
     efc:	a1 1d       	adc	r26, r1
     efe:	b1 1d       	adc	r27, r1
     f00:	80 93 dd 01 	sts	0x01DD, r24
     f04:	90 93 de 01 	sts	0x01DE, r25
     f08:	a0 93 df 01 	sts	0x01DF, r26
     f0c:	b0 93 e0 01 	sts	0x01E0, r27
}
     f10:	bf 91       	pop	r27
     f12:	af 91       	pop	r26
     f14:	9f 91       	pop	r25
     f16:	8f 91       	pop	r24
     f18:	3f 91       	pop	r19
     f1a:	2f 91       	pop	r18
     f1c:	0f 90       	pop	r0
     f1e:	0f be       	out	0x3f, r0	; 63
     f20:	0f 90       	pop	r0
     f22:	1f 90       	pop	r1
     f24:	18 95       	reti

00000f26 <init>:

void init()
{
	// this needs to be called before setup() or some functions won't
	// work there
	sei();
     f26:	78 94       	sei
#if defined(__AVR_ATmega128__)
	// CPU specific: different values for the ATmega128
	sbi(TCCR0, CS02);
#elif defined(TCCR0) && defined(CS01) && defined(CS00)
	// this combination is for the standard atmega8
	sbi(TCCR0, CS01);
     f28:	83 b7       	in	r24, 0x33	; 51
     f2a:	82 60       	ori	r24, 0x02	; 2
     f2c:	83 bf       	out	0x33, r24	; 51
	sbi(TCCR0, CS00);
     f2e:	83 b7       	in	r24, 0x33	; 51
     f30:	81 60       	ori	r24, 0x01	; 1
     f32:	83 bf       	out	0x33, r24	; 51
	#error Timer 0 prescale factor 64 not set correctly
#endif

	// enable timer 0 overflow interrupt
#if defined(TIMSK) && defined(TOIE0)
	sbi(TIMSK, TOIE0);
     f34:	89 b7       	in	r24, 0x39	; 57
     f36:	81 60       	ori	r24, 0x01	; 1
     f38:	89 bf       	out	0x39, r24	; 57
     f3a:	08 95       	ret

00000f3c <turnOffPWM>:
//
//static inline void turnOffPWM(uint8_t timer) __attribute__ ((always_inline));
//static inline void turnOffPWM(uint8_t timer)
static void turnOffPWM(uint8_t timer)
{
	switch (timer)
     f3c:	84 30       	cpi	r24, 0x04	; 4
     f3e:	41 f0       	breq	.+16     	; 0xf50 <turnOffPWM+0x14>
     f40:	86 30       	cpi	r24, 0x06	; 6
     f42:	51 f0       	breq	.+20     	; 0xf58 <turnOffPWM+0x1c>
     f44:	83 30       	cpi	r24, 0x03	; 3
     f46:	59 f4       	brne	.+22     	; 0xf5e <turnOffPWM+0x22>
	{
		#if defined(TCCR1A) && defined(COM1A1)
		case TIMER1A:   cbi(TCCR1A, COM1A1);    break;
     f48:	8f b5       	in	r24, 0x2f	; 47
     f4a:	8f 77       	andi	r24, 0x7F	; 127
     f4c:	8f bd       	out	0x2f, r24	; 47
     f4e:	08 95       	ret
		#endif
		#if defined(TCCR1A) && defined(COM1B1)
		case TIMER1B:   cbi(TCCR1A, COM1B1);    break;
     f50:	8f b5       	in	r24, 0x2f	; 47
     f52:	8f 7d       	andi	r24, 0xDF	; 223
     f54:	8f bd       	out	0x2f, r24	; 47
     f56:	08 95       	ret
		#if defined(TCCR1A) && defined(COM1C1)
		case TIMER1C:   cbi(TCCR1A, COM1C1);    break;
		#endif
		
		#if defined(TCCR2) && defined(COM21)
		case  TIMER2:   cbi(TCCR2, COM21);      break;
     f58:	85 b5       	in	r24, 0x25	; 37
     f5a:	8f 7d       	andi	r24, 0xDF	; 223
     f5c:	85 bd       	out	0x25, r24	; 37
     f5e:	08 95       	ret

00000f60 <pinMode>:
#define ARDUINO_MAIN
#include "wiring_private.h"
#include "pins_arduino.h"

void pinMode(uint8_t pin, uint8_t mode)
{
     f60:	cf 93       	push	r28
     f62:	df 93       	push	r29
	uint8_t bit = digitalPinToBitMask(pin);
     f64:	90 e0       	ldi	r25, 0x00	; 0
     f66:	fc 01       	movw	r30, r24
     f68:	e5 5c       	subi	r30, 0xC5	; 197
     f6a:	ff 4f       	sbci	r31, 0xFF	; 255
     f6c:	24 91       	lpm	r18, Z
	uint8_t port = digitalPinToPort(pin);
     f6e:	fc 01       	movw	r30, r24
     f70:	e1 5b       	subi	r30, 0xB1	; 177
     f72:	ff 4f       	sbci	r31, 0xFF	; 255
     f74:	84 91       	lpm	r24, Z
	volatile uint8_t *reg, *out;

	if (port == NOT_A_PIN) return;
     f76:	88 23       	and	r24, r24
     f78:	79 f1       	breq	.+94     	; 0xfd8 <pinMode+0x78>

	// JWS: can I let the optimizer do this?
	reg = portModeRegister(port);
     f7a:	90 e0       	ldi	r25, 0x00	; 0
     f7c:	88 0f       	add	r24, r24
     f7e:	99 1f       	adc	r25, r25
     f80:	fc 01       	movw	r30, r24
     f82:	e9 58       	subi	r30, 0x89	; 137
     f84:	ff 4f       	sbci	r31, 0xFF	; 255
     f86:	a5 91       	lpm	r26, Z+
     f88:	b4 91       	lpm	r27, Z
	out = portOutputRegister(port);
     f8a:	fc 01       	movw	r30, r24
     f8c:	e3 59       	subi	r30, 0x93	; 147
     f8e:	ff 4f       	sbci	r31, 0xFF	; 255
     f90:	c5 91       	lpm	r28, Z+
     f92:	d4 91       	lpm	r29, Z

	if (mode == INPUT) { 
     f94:	61 11       	cpse	r22, r1
     f96:	0c c0       	rjmp	.+24     	; 0xfb0 <pinMode+0x50>
		uint8_t oldSREG = SREG;
     f98:	9f b7       	in	r25, 0x3f	; 63
                cli();
     f9a:	f8 94       	cli
		*reg &= ~bit;
     f9c:	8c 91       	ld	r24, X
     f9e:	e2 2f       	mov	r30, r18
     fa0:	e0 95       	com	r30
     fa2:	8e 23       	and	r24, r30
     fa4:	8c 93       	st	X, r24
		*out &= ~bit;
     fa6:	28 81       	ld	r18, Y
     fa8:	e2 23       	and	r30, r18
     faa:	e8 83       	st	Y, r30
		SREG = oldSREG;
     fac:	9f bf       	out	0x3f, r25	; 63
     fae:	14 c0       	rjmp	.+40     	; 0xfd8 <pinMode+0x78>
	} else if (mode == INPUT_PULLUP) {
     fb0:	62 30       	cpi	r22, 0x02	; 2
     fb2:	61 f4       	brne	.+24     	; 0xfcc <pinMode+0x6c>
		uint8_t oldSREG = SREG;
     fb4:	9f b7       	in	r25, 0x3f	; 63
                cli();
     fb6:	f8 94       	cli
		*reg &= ~bit;
     fb8:	3c 91       	ld	r19, X
     fba:	82 2f       	mov	r24, r18
     fbc:	80 95       	com	r24
     fbe:	83 23       	and	r24, r19
     fc0:	8c 93       	st	X, r24
		*out |= bit;
     fc2:	e8 81       	ld	r30, Y
     fc4:	e2 2b       	or	r30, r18
     fc6:	e8 83       	st	Y, r30
		SREG = oldSREG;
     fc8:	9f bf       	out	0x3f, r25	; 63
     fca:	06 c0       	rjmp	.+12     	; 0xfd8 <pinMode+0x78>
	} else {
		uint8_t oldSREG = SREG;
     fcc:	8f b7       	in	r24, 0x3f	; 63
                cli();
     fce:	f8 94       	cli
		*reg |= bit;
     fd0:	ec 91       	ld	r30, X
     fd2:	e2 2b       	or	r30, r18
     fd4:	ec 93       	st	X, r30
		SREG = oldSREG;
     fd6:	8f bf       	out	0x3f, r24	; 63
	}
}
     fd8:	df 91       	pop	r29
     fda:	cf 91       	pop	r28
     fdc:	08 95       	ret

00000fde <digitalWrite>:
		#endif
	}
}

void digitalWrite(uint8_t pin, uint8_t val)
{
     fde:	1f 93       	push	r17
     fe0:	cf 93       	push	r28
     fe2:	df 93       	push	r29
	uint8_t timer = digitalPinToTimer(pin);
     fe4:	28 2f       	mov	r18, r24
     fe6:	30 e0       	ldi	r19, 0x00	; 0
     fe8:	f9 01       	movw	r30, r18
     fea:	e9 5d       	subi	r30, 0xD9	; 217
     fec:	ff 4f       	sbci	r31, 0xFF	; 255
     fee:	84 91       	lpm	r24, Z
	uint8_t bit = digitalPinToBitMask(pin);
     ff0:	f9 01       	movw	r30, r18
     ff2:	e5 5c       	subi	r30, 0xC5	; 197
     ff4:	ff 4f       	sbci	r31, 0xFF	; 255
     ff6:	14 91       	lpm	r17, Z
	uint8_t port = digitalPinToPort(pin);
     ff8:	f9 01       	movw	r30, r18
     ffa:	e1 5b       	subi	r30, 0xB1	; 177
     ffc:	ff 4f       	sbci	r31, 0xFF	; 255
     ffe:	c4 91       	lpm	r28, Z
	volatile uint8_t *out;

	if (port == NOT_A_PIN) return;
    1000:	cc 23       	and	r28, r28
    1002:	c9 f0       	breq	.+50     	; 0x1036 <digitalWrite+0x58>
    1004:	d6 2f       	mov	r29, r22

	// If the pin that support PWM output, we need to turn it off
	// before doing a digital write.
	if (timer != NOT_ON_TIMER) turnOffPWM(timer);
    1006:	81 11       	cpse	r24, r1
    1008:	99 df       	rcall	.-206    	; 0xf3c <turnOffPWM>

	out = portOutputRegister(port);
    100a:	ec 2f       	mov	r30, r28
    100c:	f0 e0       	ldi	r31, 0x00	; 0
    100e:	ee 0f       	add	r30, r30
    1010:	ff 1f       	adc	r31, r31
    1012:	e3 59       	subi	r30, 0x93	; 147
    1014:	ff 4f       	sbci	r31, 0xFF	; 255
    1016:	a5 91       	lpm	r26, Z+
    1018:	b4 91       	lpm	r27, Z

	uint8_t oldSREG = SREG;
    101a:	8f b7       	in	r24, 0x3f	; 63
	cli();
    101c:	f8 94       	cli

	if (val == LOW) {
    101e:	d1 11       	cpse	r29, r1
    1020:	06 c0       	rjmp	.+12     	; 0x102e <digitalWrite+0x50>
		*out &= ~bit;
    1022:	9c 91       	ld	r25, X
    1024:	e1 2f       	mov	r30, r17
    1026:	e0 95       	com	r30
    1028:	e9 23       	and	r30, r25
    102a:	ec 93       	st	X, r30
    102c:	03 c0       	rjmp	.+6      	; 0x1034 <digitalWrite+0x56>
	} else {
		*out |= bit;
    102e:	ec 91       	ld	r30, X
    1030:	e1 2b       	or	r30, r17
    1032:	ec 93       	st	X, r30
	}

	SREG = oldSREG;
    1034:	8f bf       	out	0x3f, r24	; 63
}
    1036:	df 91       	pop	r29
    1038:	cf 91       	pop	r28
    103a:	1f 91       	pop	r17
    103c:	08 95       	ret

0000103e <digitalRead>:

int digitalRead(uint8_t pin)
{
    103e:	cf 93       	push	r28
    1040:	df 93       	push	r29
	uint8_t timer = digitalPinToTimer(pin);
    1042:	28 2f       	mov	r18, r24
    1044:	30 e0       	ldi	r19, 0x00	; 0
    1046:	f9 01       	movw	r30, r18
    1048:	e9 5d       	subi	r30, 0xD9	; 217
    104a:	ff 4f       	sbci	r31, 0xFF	; 255
    104c:	84 91       	lpm	r24, Z
	uint8_t bit = digitalPinToBitMask(pin);
    104e:	f9 01       	movw	r30, r18
    1050:	e5 5c       	subi	r30, 0xC5	; 197
    1052:	ff 4f       	sbci	r31, 0xFF	; 255
    1054:	d4 91       	lpm	r29, Z
	uint8_t port = digitalPinToPort(pin);
    1056:	f9 01       	movw	r30, r18
    1058:	e1 5b       	subi	r30, 0xB1	; 177
    105a:	ff 4f       	sbci	r31, 0xFF	; 255
    105c:	c4 91       	lpm	r28, Z

	if (port == NOT_A_PIN) return LOW;
    105e:	cc 23       	and	r28, r28
    1060:	89 f0       	breq	.+34     	; 0x1084 <digitalRead+0x46>

	// If the pin that support PWM output, we need to turn it off
	// before getting a digital reading.
	if (timer != NOT_ON_TIMER) turnOffPWM(timer);
    1062:	81 11       	cpse	r24, r1
    1064:	6b df       	rcall	.-298    	; 0xf3c <turnOffPWM>

	if (*portInputRegister(port) & bit) return HIGH;
    1066:	ec 2f       	mov	r30, r28
    1068:	f0 e0       	ldi	r31, 0x00	; 0
    106a:	ee 0f       	add	r30, r30
    106c:	ff 1f       	adc	r31, r31
    106e:	ed 59       	subi	r30, 0x9D	; 157
    1070:	ff 4f       	sbci	r31, 0xFF	; 255
    1072:	a5 91       	lpm	r26, Z+
    1074:	b4 91       	lpm	r27, Z
    1076:	ec 91       	ld	r30, X
    1078:	ed 23       	and	r30, r29
    107a:	81 e0       	ldi	r24, 0x01	; 1
    107c:	90 e0       	ldi	r25, 0x00	; 0
    107e:	21 f4       	brne	.+8      	; 0x1088 <digitalRead+0x4a>
    1080:	80 e0       	ldi	r24, 0x00	; 0
    1082:	02 c0       	rjmp	.+4      	; 0x1088 <digitalRead+0x4a>
{
	uint8_t timer = digitalPinToTimer(pin);
	uint8_t bit = digitalPinToBitMask(pin);
	uint8_t port = digitalPinToPort(pin);

	if (port == NOT_A_PIN) return LOW;
    1084:	80 e0       	ldi	r24, 0x00	; 0
    1086:	90 e0       	ldi	r25, 0x00	; 0
	// before getting a digital reading.
	if (timer != NOT_ON_TIMER) turnOffPWM(timer);

	if (*portInputRegister(port) & bit) return HIGH;
	return LOW;
}
    1088:	df 91       	pop	r29
    108a:	cf 91       	pop	r28
    108c:	08 95       	ret

0000108e <__divsf3>:
    108e:	0c d0       	rcall	.+24     	; 0x10a8 <__divsf3x>
    1090:	eb c0       	rjmp	.+470    	; 0x1268 <__fp_round>
    1092:	e3 d0       	rcall	.+454    	; 0x125a <__fp_pscB>
    1094:	40 f0       	brcs	.+16     	; 0x10a6 <__divsf3+0x18>
    1096:	da d0       	rcall	.+436    	; 0x124c <__fp_pscA>
    1098:	30 f0       	brcs	.+12     	; 0x10a6 <__divsf3+0x18>
    109a:	21 f4       	brne	.+8      	; 0x10a4 <__divsf3+0x16>
    109c:	5f 3f       	cpi	r21, 0xFF	; 255
    109e:	19 f0       	breq	.+6      	; 0x10a6 <__divsf3+0x18>
    10a0:	cc c0       	rjmp	.+408    	; 0x123a <__fp_inf>
    10a2:	51 11       	cpse	r21, r1
    10a4:	15 c1       	rjmp	.+554    	; 0x12d0 <__fp_szero>
    10a6:	cf c0       	rjmp	.+414    	; 0x1246 <__fp_nan>

000010a8 <__divsf3x>:
    10a8:	f0 d0       	rcall	.+480    	; 0x128a <__fp_split3>
    10aa:	98 f3       	brcs	.-26     	; 0x1092 <__divsf3+0x4>

000010ac <__divsf3_pse>:
    10ac:	99 23       	and	r25, r25
    10ae:	c9 f3       	breq	.-14     	; 0x10a2 <__divsf3+0x14>
    10b0:	55 23       	and	r21, r21
    10b2:	b1 f3       	breq	.-20     	; 0x10a0 <__divsf3+0x12>
    10b4:	95 1b       	sub	r25, r21
    10b6:	55 0b       	sbc	r21, r21
    10b8:	bb 27       	eor	r27, r27
    10ba:	aa 27       	eor	r26, r26
    10bc:	62 17       	cp	r22, r18
    10be:	73 07       	cpc	r23, r19
    10c0:	84 07       	cpc	r24, r20
    10c2:	38 f0       	brcs	.+14     	; 0x10d2 <__divsf3_pse+0x26>
    10c4:	9f 5f       	subi	r25, 0xFF	; 255
    10c6:	5f 4f       	sbci	r21, 0xFF	; 255
    10c8:	22 0f       	add	r18, r18
    10ca:	33 1f       	adc	r19, r19
    10cc:	44 1f       	adc	r20, r20
    10ce:	aa 1f       	adc	r26, r26
    10d0:	a9 f3       	breq	.-22     	; 0x10bc <__divsf3_pse+0x10>
    10d2:	33 d0       	rcall	.+102    	; 0x113a <__divsf3_pse+0x8e>
    10d4:	0e 2e       	mov	r0, r30
    10d6:	3a f0       	brmi	.+14     	; 0x10e6 <__divsf3_pse+0x3a>
    10d8:	e0 e8       	ldi	r30, 0x80	; 128
    10da:	30 d0       	rcall	.+96     	; 0x113c <__divsf3_pse+0x90>
    10dc:	91 50       	subi	r25, 0x01	; 1
    10de:	50 40       	sbci	r21, 0x00	; 0
    10e0:	e6 95       	lsr	r30
    10e2:	00 1c       	adc	r0, r0
    10e4:	ca f7       	brpl	.-14     	; 0x10d8 <__divsf3_pse+0x2c>
    10e6:	29 d0       	rcall	.+82     	; 0x113a <__divsf3_pse+0x8e>
    10e8:	fe 2f       	mov	r31, r30
    10ea:	27 d0       	rcall	.+78     	; 0x113a <__divsf3_pse+0x8e>
    10ec:	66 0f       	add	r22, r22
    10ee:	77 1f       	adc	r23, r23
    10f0:	88 1f       	adc	r24, r24
    10f2:	bb 1f       	adc	r27, r27
    10f4:	26 17       	cp	r18, r22
    10f6:	37 07       	cpc	r19, r23
    10f8:	48 07       	cpc	r20, r24
    10fa:	ab 07       	cpc	r26, r27
    10fc:	b0 e8       	ldi	r27, 0x80	; 128
    10fe:	09 f0       	breq	.+2      	; 0x1102 <__divsf3_pse+0x56>
    1100:	bb 0b       	sbc	r27, r27
    1102:	80 2d       	mov	r24, r0
    1104:	bf 01       	movw	r22, r30
    1106:	ff 27       	eor	r31, r31
    1108:	93 58       	subi	r25, 0x83	; 131
    110a:	5f 4f       	sbci	r21, 0xFF	; 255
    110c:	2a f0       	brmi	.+10     	; 0x1118 <__divsf3_pse+0x6c>
    110e:	9e 3f       	cpi	r25, 0xFE	; 254
    1110:	51 05       	cpc	r21, r1
    1112:	68 f0       	brcs	.+26     	; 0x112e <__divsf3_pse+0x82>
    1114:	92 c0       	rjmp	.+292    	; 0x123a <__fp_inf>
    1116:	dc c0       	rjmp	.+440    	; 0x12d0 <__fp_szero>
    1118:	5f 3f       	cpi	r21, 0xFF	; 255
    111a:	ec f3       	brlt	.-6      	; 0x1116 <__divsf3_pse+0x6a>
    111c:	98 3e       	cpi	r25, 0xE8	; 232
    111e:	dc f3       	brlt	.-10     	; 0x1116 <__divsf3_pse+0x6a>
    1120:	86 95       	lsr	r24
    1122:	77 95       	ror	r23
    1124:	67 95       	ror	r22
    1126:	b7 95       	ror	r27
    1128:	f7 95       	ror	r31
    112a:	9f 5f       	subi	r25, 0xFF	; 255
    112c:	c9 f7       	brne	.-14     	; 0x1120 <__divsf3_pse+0x74>
    112e:	88 0f       	add	r24, r24
    1130:	91 1d       	adc	r25, r1
    1132:	96 95       	lsr	r25
    1134:	87 95       	ror	r24
    1136:	97 f9       	bld	r25, 7
    1138:	08 95       	ret
    113a:	e1 e0       	ldi	r30, 0x01	; 1
    113c:	66 0f       	add	r22, r22
    113e:	77 1f       	adc	r23, r23
    1140:	88 1f       	adc	r24, r24
    1142:	bb 1f       	adc	r27, r27
    1144:	62 17       	cp	r22, r18
    1146:	73 07       	cpc	r23, r19
    1148:	84 07       	cpc	r24, r20
    114a:	ba 07       	cpc	r27, r26
    114c:	20 f0       	brcs	.+8      	; 0x1156 <__divsf3_pse+0xaa>
    114e:	62 1b       	sub	r22, r18
    1150:	73 0b       	sbc	r23, r19
    1152:	84 0b       	sbc	r24, r20
    1154:	ba 0b       	sbc	r27, r26
    1156:	ee 1f       	adc	r30, r30
    1158:	88 f7       	brcc	.-30     	; 0x113c <__divsf3_pse+0x90>
    115a:	e0 95       	com	r30
    115c:	08 95       	ret

0000115e <__fixsfsi>:
    115e:	04 d0       	rcall	.+8      	; 0x1168 <__fixunssfsi>
    1160:	68 94       	set
    1162:	b1 11       	cpse	r27, r1
    1164:	b5 c0       	rjmp	.+362    	; 0x12d0 <__fp_szero>
    1166:	08 95       	ret

00001168 <__fixunssfsi>:
    1168:	98 d0       	rcall	.+304    	; 0x129a <__fp_splitA>
    116a:	88 f0       	brcs	.+34     	; 0x118e <__fixunssfsi+0x26>
    116c:	9f 57       	subi	r25, 0x7F	; 127
    116e:	90 f0       	brcs	.+36     	; 0x1194 <__fixunssfsi+0x2c>
    1170:	b9 2f       	mov	r27, r25
    1172:	99 27       	eor	r25, r25
    1174:	b7 51       	subi	r27, 0x17	; 23
    1176:	a0 f0       	brcs	.+40     	; 0x11a0 <__fixunssfsi+0x38>
    1178:	d1 f0       	breq	.+52     	; 0x11ae <__fixunssfsi+0x46>
    117a:	66 0f       	add	r22, r22
    117c:	77 1f       	adc	r23, r23
    117e:	88 1f       	adc	r24, r24
    1180:	99 1f       	adc	r25, r25
    1182:	1a f0       	brmi	.+6      	; 0x118a <__fixunssfsi+0x22>
    1184:	ba 95       	dec	r27
    1186:	c9 f7       	brne	.-14     	; 0x117a <__fixunssfsi+0x12>
    1188:	12 c0       	rjmp	.+36     	; 0x11ae <__fixunssfsi+0x46>
    118a:	b1 30       	cpi	r27, 0x01	; 1
    118c:	81 f0       	breq	.+32     	; 0x11ae <__fixunssfsi+0x46>
    118e:	9f d0       	rcall	.+318    	; 0x12ce <__fp_zero>
    1190:	b1 e0       	ldi	r27, 0x01	; 1
    1192:	08 95       	ret
    1194:	9c c0       	rjmp	.+312    	; 0x12ce <__fp_zero>
    1196:	67 2f       	mov	r22, r23
    1198:	78 2f       	mov	r23, r24
    119a:	88 27       	eor	r24, r24
    119c:	b8 5f       	subi	r27, 0xF8	; 248
    119e:	39 f0       	breq	.+14     	; 0x11ae <__fixunssfsi+0x46>
    11a0:	b9 3f       	cpi	r27, 0xF9	; 249
    11a2:	cc f3       	brlt	.-14     	; 0x1196 <__fixunssfsi+0x2e>
    11a4:	86 95       	lsr	r24
    11a6:	77 95       	ror	r23
    11a8:	67 95       	ror	r22
    11aa:	b3 95       	inc	r27
    11ac:	d9 f7       	brne	.-10     	; 0x11a4 <__fixunssfsi+0x3c>
    11ae:	3e f4       	brtc	.+14     	; 0x11be <__fixunssfsi+0x56>
    11b0:	90 95       	com	r25
    11b2:	80 95       	com	r24
    11b4:	70 95       	com	r23
    11b6:	61 95       	neg	r22
    11b8:	7f 4f       	sbci	r23, 0xFF	; 255
    11ba:	8f 4f       	sbci	r24, 0xFF	; 255
    11bc:	9f 4f       	sbci	r25, 0xFF	; 255
    11be:	08 95       	ret

000011c0 <__floatunsisf>:
    11c0:	e8 94       	clt
    11c2:	09 c0       	rjmp	.+18     	; 0x11d6 <__floatsisf+0x12>

000011c4 <__floatsisf>:
    11c4:	97 fb       	bst	r25, 7
    11c6:	3e f4       	brtc	.+14     	; 0x11d6 <__floatsisf+0x12>
    11c8:	90 95       	com	r25
    11ca:	80 95       	com	r24
    11cc:	70 95       	com	r23
    11ce:	61 95       	neg	r22
    11d0:	7f 4f       	sbci	r23, 0xFF	; 255
    11d2:	8f 4f       	sbci	r24, 0xFF	; 255
    11d4:	9f 4f       	sbci	r25, 0xFF	; 255
    11d6:	99 23       	and	r25, r25
    11d8:	a9 f0       	breq	.+42     	; 0x1204 <__floatsisf+0x40>
    11da:	f9 2f       	mov	r31, r25
    11dc:	96 e9       	ldi	r25, 0x96	; 150
    11de:	bb 27       	eor	r27, r27
    11e0:	93 95       	inc	r25
    11e2:	f6 95       	lsr	r31
    11e4:	87 95       	ror	r24
    11e6:	77 95       	ror	r23
    11e8:	67 95       	ror	r22
    11ea:	b7 95       	ror	r27
    11ec:	f1 11       	cpse	r31, r1
    11ee:	f8 cf       	rjmp	.-16     	; 0x11e0 <__floatsisf+0x1c>
    11f0:	fa f4       	brpl	.+62     	; 0x1230 <__floatsisf+0x6c>
    11f2:	bb 0f       	add	r27, r27
    11f4:	11 f4       	brne	.+4      	; 0x11fa <__floatsisf+0x36>
    11f6:	60 ff       	sbrs	r22, 0
    11f8:	1b c0       	rjmp	.+54     	; 0x1230 <__floatsisf+0x6c>
    11fa:	6f 5f       	subi	r22, 0xFF	; 255
    11fc:	7f 4f       	sbci	r23, 0xFF	; 255
    11fe:	8f 4f       	sbci	r24, 0xFF	; 255
    1200:	9f 4f       	sbci	r25, 0xFF	; 255
    1202:	16 c0       	rjmp	.+44     	; 0x1230 <__floatsisf+0x6c>
    1204:	88 23       	and	r24, r24
    1206:	11 f0       	breq	.+4      	; 0x120c <__floatsisf+0x48>
    1208:	96 e9       	ldi	r25, 0x96	; 150
    120a:	11 c0       	rjmp	.+34     	; 0x122e <__floatsisf+0x6a>
    120c:	77 23       	and	r23, r23
    120e:	21 f0       	breq	.+8      	; 0x1218 <__floatsisf+0x54>
    1210:	9e e8       	ldi	r25, 0x8E	; 142
    1212:	87 2f       	mov	r24, r23
    1214:	76 2f       	mov	r23, r22
    1216:	05 c0       	rjmp	.+10     	; 0x1222 <__floatsisf+0x5e>
    1218:	66 23       	and	r22, r22
    121a:	71 f0       	breq	.+28     	; 0x1238 <__floatsisf+0x74>
    121c:	96 e8       	ldi	r25, 0x86	; 134
    121e:	86 2f       	mov	r24, r22
    1220:	70 e0       	ldi	r23, 0x00	; 0
    1222:	60 e0       	ldi	r22, 0x00	; 0
    1224:	2a f0       	brmi	.+10     	; 0x1230 <__floatsisf+0x6c>
    1226:	9a 95       	dec	r25
    1228:	66 0f       	add	r22, r22
    122a:	77 1f       	adc	r23, r23
    122c:	88 1f       	adc	r24, r24
    122e:	da f7       	brpl	.-10     	; 0x1226 <__floatsisf+0x62>
    1230:	88 0f       	add	r24, r24
    1232:	96 95       	lsr	r25
    1234:	87 95       	ror	r24
    1236:	97 f9       	bld	r25, 7
    1238:	08 95       	ret

0000123a <__fp_inf>:
    123a:	97 f9       	bld	r25, 7
    123c:	9f 67       	ori	r25, 0x7F	; 127
    123e:	80 e8       	ldi	r24, 0x80	; 128
    1240:	70 e0       	ldi	r23, 0x00	; 0
    1242:	60 e0       	ldi	r22, 0x00	; 0
    1244:	08 95       	ret

00001246 <__fp_nan>:
    1246:	9f ef       	ldi	r25, 0xFF	; 255
    1248:	80 ec       	ldi	r24, 0xC0	; 192
    124a:	08 95       	ret

0000124c <__fp_pscA>:
    124c:	00 24       	eor	r0, r0
    124e:	0a 94       	dec	r0
    1250:	16 16       	cp	r1, r22
    1252:	17 06       	cpc	r1, r23
    1254:	18 06       	cpc	r1, r24
    1256:	09 06       	cpc	r0, r25
    1258:	08 95       	ret

0000125a <__fp_pscB>:
    125a:	00 24       	eor	r0, r0
    125c:	0a 94       	dec	r0
    125e:	12 16       	cp	r1, r18
    1260:	13 06       	cpc	r1, r19
    1262:	14 06       	cpc	r1, r20
    1264:	05 06       	cpc	r0, r21
    1266:	08 95       	ret

00001268 <__fp_round>:
    1268:	09 2e       	mov	r0, r25
    126a:	03 94       	inc	r0
    126c:	00 0c       	add	r0, r0
    126e:	11 f4       	brne	.+4      	; 0x1274 <__fp_round+0xc>
    1270:	88 23       	and	r24, r24
    1272:	52 f0       	brmi	.+20     	; 0x1288 <__fp_round+0x20>
    1274:	bb 0f       	add	r27, r27
    1276:	40 f4       	brcc	.+16     	; 0x1288 <__fp_round+0x20>
    1278:	bf 2b       	or	r27, r31
    127a:	11 f4       	brne	.+4      	; 0x1280 <__fp_round+0x18>
    127c:	60 ff       	sbrs	r22, 0
    127e:	04 c0       	rjmp	.+8      	; 0x1288 <__fp_round+0x20>
    1280:	6f 5f       	subi	r22, 0xFF	; 255
    1282:	7f 4f       	sbci	r23, 0xFF	; 255
    1284:	8f 4f       	sbci	r24, 0xFF	; 255
    1286:	9f 4f       	sbci	r25, 0xFF	; 255
    1288:	08 95       	ret

0000128a <__fp_split3>:
    128a:	57 fd       	sbrc	r21, 7
    128c:	90 58       	subi	r25, 0x80	; 128
    128e:	44 0f       	add	r20, r20
    1290:	55 1f       	adc	r21, r21
    1292:	59 f0       	breq	.+22     	; 0x12aa <__fp_splitA+0x10>
    1294:	5f 3f       	cpi	r21, 0xFF	; 255
    1296:	71 f0       	breq	.+28     	; 0x12b4 <__fp_splitA+0x1a>
    1298:	47 95       	ror	r20

0000129a <__fp_splitA>:
    129a:	88 0f       	add	r24, r24
    129c:	97 fb       	bst	r25, 7
    129e:	99 1f       	adc	r25, r25
    12a0:	61 f0       	breq	.+24     	; 0x12ba <__fp_splitA+0x20>
    12a2:	9f 3f       	cpi	r25, 0xFF	; 255
    12a4:	79 f0       	breq	.+30     	; 0x12c4 <__fp_splitA+0x2a>
    12a6:	87 95       	ror	r24
    12a8:	08 95       	ret
    12aa:	12 16       	cp	r1, r18
    12ac:	13 06       	cpc	r1, r19
    12ae:	14 06       	cpc	r1, r20
    12b0:	55 1f       	adc	r21, r21
    12b2:	f2 cf       	rjmp	.-28     	; 0x1298 <__fp_split3+0xe>
    12b4:	46 95       	lsr	r20
    12b6:	f1 df       	rcall	.-30     	; 0x129a <__fp_splitA>
    12b8:	08 c0       	rjmp	.+16     	; 0x12ca <__fp_splitA+0x30>
    12ba:	16 16       	cp	r1, r22
    12bc:	17 06       	cpc	r1, r23
    12be:	18 06       	cpc	r1, r24
    12c0:	99 1f       	adc	r25, r25
    12c2:	f1 cf       	rjmp	.-30     	; 0x12a6 <__fp_splitA+0xc>
    12c4:	86 95       	lsr	r24
    12c6:	71 05       	cpc	r23, r1
    12c8:	61 05       	cpc	r22, r1
    12ca:	08 94       	sec
    12cc:	08 95       	ret

000012ce <__fp_zero>:
    12ce:	e8 94       	clt

000012d0 <__fp_szero>:
    12d0:	bb 27       	eor	r27, r27
    12d2:	66 27       	eor	r22, r22
    12d4:	77 27       	eor	r23, r23
    12d6:	cb 01       	movw	r24, r22
    12d8:	97 f9       	bld	r25, 7
    12da:	08 95       	ret

000012dc <__mulsf3>:
    12dc:	0b d0       	rcall	.+22     	; 0x12f4 <__mulsf3x>
    12de:	c4 cf       	rjmp	.-120    	; 0x1268 <__fp_round>
    12e0:	b5 df       	rcall	.-150    	; 0x124c <__fp_pscA>
    12e2:	28 f0       	brcs	.+10     	; 0x12ee <__mulsf3+0x12>
    12e4:	ba df       	rcall	.-140    	; 0x125a <__fp_pscB>
    12e6:	18 f0       	brcs	.+6      	; 0x12ee <__mulsf3+0x12>
    12e8:	95 23       	and	r25, r21
    12ea:	09 f0       	breq	.+2      	; 0x12ee <__mulsf3+0x12>
    12ec:	a6 cf       	rjmp	.-180    	; 0x123a <__fp_inf>
    12ee:	ab cf       	rjmp	.-170    	; 0x1246 <__fp_nan>
    12f0:	11 24       	eor	r1, r1
    12f2:	ee cf       	rjmp	.-36     	; 0x12d0 <__fp_szero>

000012f4 <__mulsf3x>:
    12f4:	ca df       	rcall	.-108    	; 0x128a <__fp_split3>
    12f6:	a0 f3       	brcs	.-24     	; 0x12e0 <__mulsf3+0x4>

000012f8 <__mulsf3_pse>:
    12f8:	95 9f       	mul	r25, r21
    12fa:	d1 f3       	breq	.-12     	; 0x12f0 <__mulsf3+0x14>
    12fc:	95 0f       	add	r25, r21
    12fe:	50 e0       	ldi	r21, 0x00	; 0
    1300:	55 1f       	adc	r21, r21
    1302:	62 9f       	mul	r22, r18
    1304:	f0 01       	movw	r30, r0
    1306:	72 9f       	mul	r23, r18
    1308:	bb 27       	eor	r27, r27
    130a:	f0 0d       	add	r31, r0
    130c:	b1 1d       	adc	r27, r1
    130e:	63 9f       	mul	r22, r19
    1310:	aa 27       	eor	r26, r26
    1312:	f0 0d       	add	r31, r0
    1314:	b1 1d       	adc	r27, r1
    1316:	aa 1f       	adc	r26, r26
    1318:	64 9f       	mul	r22, r20
    131a:	66 27       	eor	r22, r22
    131c:	b0 0d       	add	r27, r0
    131e:	a1 1d       	adc	r26, r1
    1320:	66 1f       	adc	r22, r22
    1322:	82 9f       	mul	r24, r18
    1324:	22 27       	eor	r18, r18
    1326:	b0 0d       	add	r27, r0
    1328:	a1 1d       	adc	r26, r1
    132a:	62 1f       	adc	r22, r18
    132c:	73 9f       	mul	r23, r19
    132e:	b0 0d       	add	r27, r0
    1330:	a1 1d       	adc	r26, r1
    1332:	62 1f       	adc	r22, r18
    1334:	83 9f       	mul	r24, r19
    1336:	a0 0d       	add	r26, r0
    1338:	61 1d       	adc	r22, r1
    133a:	22 1f       	adc	r18, r18
    133c:	74 9f       	mul	r23, r20
    133e:	33 27       	eor	r19, r19
    1340:	a0 0d       	add	r26, r0
    1342:	61 1d       	adc	r22, r1
    1344:	23 1f       	adc	r18, r19
    1346:	84 9f       	mul	r24, r20
    1348:	60 0d       	add	r22, r0
    134a:	21 1d       	adc	r18, r1
    134c:	82 2f       	mov	r24, r18
    134e:	76 2f       	mov	r23, r22
    1350:	6a 2f       	mov	r22, r26
    1352:	11 24       	eor	r1, r1
    1354:	9f 57       	subi	r25, 0x7F	; 127
    1356:	50 40       	sbci	r21, 0x00	; 0
    1358:	8a f0       	brmi	.+34     	; 0x137c <__mulsf3_pse+0x84>
    135a:	e1 f0       	breq	.+56     	; 0x1394 <__mulsf3_pse+0x9c>
    135c:	88 23       	and	r24, r24
    135e:	4a f0       	brmi	.+18     	; 0x1372 <__mulsf3_pse+0x7a>
    1360:	ee 0f       	add	r30, r30
    1362:	ff 1f       	adc	r31, r31
    1364:	bb 1f       	adc	r27, r27
    1366:	66 1f       	adc	r22, r22
    1368:	77 1f       	adc	r23, r23
    136a:	88 1f       	adc	r24, r24
    136c:	91 50       	subi	r25, 0x01	; 1
    136e:	50 40       	sbci	r21, 0x00	; 0
    1370:	a9 f7       	brne	.-22     	; 0x135c <__mulsf3_pse+0x64>
    1372:	9e 3f       	cpi	r25, 0xFE	; 254
    1374:	51 05       	cpc	r21, r1
    1376:	70 f0       	brcs	.+28     	; 0x1394 <__mulsf3_pse+0x9c>
    1378:	60 cf       	rjmp	.-320    	; 0x123a <__fp_inf>
    137a:	aa cf       	rjmp	.-172    	; 0x12d0 <__fp_szero>
    137c:	5f 3f       	cpi	r21, 0xFF	; 255
    137e:	ec f3       	brlt	.-6      	; 0x137a <__mulsf3_pse+0x82>
    1380:	98 3e       	cpi	r25, 0xE8	; 232
    1382:	dc f3       	brlt	.-10     	; 0x137a <__mulsf3_pse+0x82>
    1384:	86 95       	lsr	r24
    1386:	77 95       	ror	r23
    1388:	67 95       	ror	r22
    138a:	b7 95       	ror	r27
    138c:	f7 95       	ror	r31
    138e:	e7 95       	ror	r30
    1390:	9f 5f       	subi	r25, 0xFF	; 255
    1392:	c1 f7       	brne	.-16     	; 0x1384 <__mulsf3_pse+0x8c>
    1394:	fe 2b       	or	r31, r30
    1396:	88 0f       	add	r24, r24
    1398:	91 1d       	adc	r25, r1
    139a:	96 95       	lsr	r25
    139c:	87 95       	ror	r24
    139e:	97 f9       	bld	r25, 7
    13a0:	08 95       	ret

000013a2 <__udivmodsi4>:
    13a2:	a1 e2       	ldi	r26, 0x21	; 33
    13a4:	1a 2e       	mov	r1, r26
    13a6:	aa 1b       	sub	r26, r26
    13a8:	bb 1b       	sub	r27, r27
    13aa:	fd 01       	movw	r30, r26
    13ac:	0d c0       	rjmp	.+26     	; 0x13c8 <__udivmodsi4_ep>

000013ae <__udivmodsi4_loop>:
    13ae:	aa 1f       	adc	r26, r26
    13b0:	bb 1f       	adc	r27, r27
    13b2:	ee 1f       	adc	r30, r30
    13b4:	ff 1f       	adc	r31, r31
    13b6:	a2 17       	cp	r26, r18
    13b8:	b3 07       	cpc	r27, r19
    13ba:	e4 07       	cpc	r30, r20
    13bc:	f5 07       	cpc	r31, r21
    13be:	20 f0       	brcs	.+8      	; 0x13c8 <__udivmodsi4_ep>
    13c0:	a2 1b       	sub	r26, r18
    13c2:	b3 0b       	sbc	r27, r19
    13c4:	e4 0b       	sbc	r30, r20
    13c6:	f5 0b       	sbc	r31, r21

000013c8 <__udivmodsi4_ep>:
    13c8:	66 1f       	adc	r22, r22
    13ca:	77 1f       	adc	r23, r23
    13cc:	88 1f       	adc	r24, r24
    13ce:	99 1f       	adc	r25, r25
    13d0:	1a 94       	dec	r1
    13d2:	69 f7       	brne	.-38     	; 0x13ae <__udivmodsi4_loop>
    13d4:	60 95       	com	r22
    13d6:	70 95       	com	r23
    13d8:	80 95       	com	r24
    13da:	90 95       	com	r25
    13dc:	9b 01       	movw	r18, r22
    13de:	ac 01       	movw	r20, r24
    13e0:	bd 01       	movw	r22, r26
    13e2:	cf 01       	movw	r24, r30
    13e4:	08 95       	ret

000013e6 <__tablejump2__>:
    13e6:	ee 0f       	add	r30, r30
    13e8:	ff 1f       	adc	r31, r31
    13ea:	05 90       	lpm	r0, Z+
    13ec:	f4 91       	lpm	r31, Z
    13ee:	e0 2d       	mov	r30, r0
    13f0:	09 94       	ijmp

000013f2 <_exit>:
    13f2:	f8 94       	cli

000013f4 <__stop_program>:
    13f4:	ff cf       	rjmp	.-2      	; 0x13f4 <__stop_program>
